libnymea-core.so.1 libnymea1 #MINVER#
 PyInit_nymea@Base 0.30.0
 _Z11dcModbusRtuv@Base 0.30.0
 _Z15dcConfigurationv@Base 0.30.0
 _Z16dcZigbeeResourcev@Base 0.30.0
 _Z18PyApiKey_setApiKeyP8PyApiKeyRK6ApiKey@Base 0.30.0
 _Z18PyObjectToQVariantP7_object@Base 0.30.0
 _Z18QVariantToPyObjectRK8QVariant@Base 0.30.0
 _Z19dcModbusRtuResourcev@Base 0.30.0
 _Z20dcPythonIntegrationsv@Base 0.30.0
 _Z20qInitResources_iconsv@Base 0.30.0
 _Z23qCleanupResources_iconsv@Base 0.30.0
 _Z25PyThingActionInfo_setInfoP17PyThingActionInfoP15ThingActionInfoP6_thing@Base 0.30.0
 _Z26PyThingPairingInfo_setInfoP18PyThingPairingInfoP16ThingPairingInfo@Base 0.30.0
 _Z27PyBrowserActionInfo_setInfoP19PyBrowserActionInfoP17BrowserActionInfoP6_thing@Base 0.30.0
 _Z28PyThingDiscoveryInfo_setInfoP20PyThingDiscoveryInfoP18ThingDiscoveryInfo@Base 0.30.0
 _Z29dcZigbeeNetworkLibNymeaZigbeev@Base 0.30.0
 _Z30PyBrowseResult_setBrowseResultP14PyBrowseResultP12BrowseResultP6_thing@Base 0.30.0
 _Z30qInitResources_debug_interfacev@Base 0.30.0
 _Z32PyApiKeyStorage_setApiKeyStorageP15PyApiKeyStorageP13ApiKeyStorage@Base 0.30.0
 _Z32PyPluginStorage_setPluginStorageP15PyPluginStorageP9QSettings@Base 0.30.0
 _Z33qCleanupResources_debug_interfacev@Base 0.30.0
 _Z40PyBrowserItemResult_setBrowserItemResultP19PyBrowserItemResultP17BrowserItemResultP6_thing@Base 0.30.0
 _Z6dcCorev@Base 0.30.0
 _Z8dcZigbeev@Base 0.30.0
 _ZGVZN9QtPrivate15ConnectionTypesINS_4ListIJRK16ThingDescriptorsEEELb1EE5typesEvE1t@Base 0.30.0
 _ZGVZN9QtPrivate15ConnectionTypesINS_4ListIJRK5EventEEELb1EE5typesEvE1t@Base 0.30.0
 _ZGVZN9QtPrivate15ConnectionTypesINS_4ListIJRK7ThingIdEEELb1EE5typesEvE1t@Base 0.30.0
 _ZGVZN9QtPrivate19ValueTypeIsMetaTypeI5QListIiELb1EE17registerConverterEiE1f@Base 0.30.0
 _ZN10RuleAction10setThingIdERK7ThingId@Base 0.30.0
 _ZN10RuleAction12setInterfaceERK7QString@Base 0.30.0
 _ZN10RuleAction15setActionTypeIdERK12ActionTypeId@Base 0.30.0
 _ZN10RuleAction16setBrowserItemIdERK7QString@Base 0.30.0
 _ZN10RuleAction16staticMetaObjectE@Base 0.30.0
 _ZN10RuleAction18setInterfaceActionERK7QString@Base 0.30.0
 _ZN10RuleAction19setRuleActionParamsERK16RuleActionParams@Base 0.30.0
 _ZN10RuleActionC1ERK12ActionTypeIdRK7ThingIdRK16RuleActionParams@Base 0.30.0
 _ZN10RuleActionC1ERK7QStringS2_RK16RuleActionParams@Base 0.30.0
 _ZN10RuleActionC1ERK7ThingIdRK7QString@Base 0.30.0
 _ZN10RuleActionC1ERKS_@Base 0.30.0
 _ZN10RuleActionC2ERK12ActionTypeIdRK7ThingIdRK16RuleActionParams@Base 0.30.0
 _ZN10RuleActionC2ERK7QStringS2_RK16RuleActionParams@Base 0.30.0
 _ZN10RuleActionC2ERK7ThingIdRK7QString@Base 0.30.0
 _ZN10RuleActionC2ERKS_@Base 0.30.0
 _ZN10RuleActionaSERKS_@Base 0.30.0
 _ZN10Translator14loadTranslatorEP17IntegrationPluginRK7QLocale@Base 0.30.0
 _ZN10Translator9translateERK8PluginIdRK7QStringRK7QLocale@Base 0.30.0
 _ZN10TranslatorC1EP26ThingManagerImplementation@Base 0.30.0
 _ZN10TranslatorC2EP26ThingManagerImplementation@Base 0.30.0
 _ZN10TranslatorD1Ev@Base 0.30.0
 _ZN10TranslatorD2Ev@Base 0.30.0
 _ZN11QQmlPrivate10createIntoI11ScriptAlarmEEvPv@Base 0.30.0
 _ZN11QQmlPrivate10createIntoIN11nymeaserver11ScriptEventEEEvPv@Base 0.30.0
 _ZN11QQmlPrivate10createIntoIN11nymeaserver11ScriptStateEEEvPv@Base 0.30.0
 _ZN11QQmlPrivate10createIntoIN11nymeaserver12ScriptActionEEEvPv@Base 0.30.0
 _ZN11QQmlPrivate10createIntoIN11nymeaserver20ScriptInterfaceEventEEEvPv@Base 0.30.0
 _ZN11QQmlPrivate10createIntoIN11nymeaserver21ScriptInterfaceActionEEEvPv@Base 0.30.0
 _ZN11RuleActions16staticMetaObjectE@Base 0.30.0
 _ZN11RuleActions3putERK8QVariant@Base 0.30.0
 _ZN11RuleActionsC1ERK5QListI10RuleActionE@Base 0.30.0
 _ZN11RuleActionsC1Ev@Base 0.30.0
 _ZN11RuleActionsC2ERK5QListI10RuleActionE@Base 0.30.0
 _ZN11RuleActionsC2Ev@Base 0.30.0
 _ZN11ScriptAlarm10setEndTimeERK5QTime@Base 0.30.0
 _ZN11ScriptAlarm10timerEventEP11QTimerEvent@Base 0.30.0
 _ZN11ScriptAlarm11qt_metacallEN11QMetaObject4CallEiPPv@Base 0.30.0
 _ZN11ScriptAlarm11qt_metacastEPKc@Base 0.30.0
 _ZN11ScriptAlarm11setWeekDaysERK6QFlagsINS_7WeekDayEE@Base 0.30.0
 _ZN11ScriptAlarm11timeChangedEv@Base 0.30.0
 _ZN11ScriptAlarm12updateActiveEv@Base 0.30.0
 _ZN11ScriptAlarm13activeChangedEv@Base 0.30.0
 _ZN11ScriptAlarm14endTimeChangedEv@Base 0.30.0
 _ZN11ScriptAlarm15weekDaysChangedEv@Base 0.30.0
 _ZN11ScriptAlarm16staticMetaObjectE@Base 0.30.0
 _ZN11ScriptAlarm7setTimeERK5QTime@Base 0.30.0
 _ZN11ScriptAlarm9triggeredEv@Base 0.30.0
 _ZN11ScriptAlarmC1EP7QObject@Base 0.30.0
 _ZN11ScriptAlarmC2EP7QObject@Base 0.30.0
 _ZN11ScriptThing11nameChangedEv@Base 0.30.0
 _ZN11ScriptThing11qt_metacallEN11QMetaObject4CallEiPPv@Base 0.30.0
 _ZN11ScriptThing11qt_metacastEPKc@Base 0.30.0
 _ZN11ScriptThing16staticMetaObjectE@Base 0.30.0
 _ZN11nymeaserver10LogEntries16staticMetaObjectE@Base 0.30.0
 _ZN11nymeaserver10LogEntries3putERK8QVariant@Base 0.30.0
 _ZN11nymeaserver10LogEntriesC1ERK5QListINS_8LogEntryEE@Base 0.30.0
 _ZN11nymeaserver10LogEntriesC1Ev@Base 0.30.0
 _ZN11nymeaserver10LogEntriesC2ERK5QListINS_8LogEntryEE@Base 0.30.0
 _ZN11nymeaserver10LogEntriesC2Ev@Base 0.30.0
 _ZN11nymeaserver10MqttBroker10stopServerERK7QString@Base 0.30.0
 _ZN11nymeaserver10MqttBroker11policyAddedERKNS_10MqttPolicyE@Base 0.30.0
 _ZN11nymeaserver10MqttBroker11qt_metacallEN11QMetaObject4CallEiPPv@Base 0.30.0
 _ZN11nymeaserver10MqttBroker11qt_metacastEPKc@Base 0.30.0
 _ZN11nymeaserver10MqttBroker11startServerERKNS_19ServerConfigurationERK17QSslConfiguration@Base 0.30.0
 _ZN11nymeaserver10MqttBroker12removePolicyERK7QString@Base 0.30.0
 _ZN11nymeaserver10MqttBroker12updatePolicyERKNS_10MqttPolicyE@Base 0.30.0
 _ZN11nymeaserver10MqttBroker13policyChangedERKNS_10MqttPolicyE@Base 0.30.0
 _ZN11nymeaserver10MqttBroker13policyRemovedERKNS_10MqttPolicyE@Base 0.30.0
 _ZN11nymeaserver10MqttBroker14updatePoliciesERK5QListINS_10MqttPolicyEE@Base 0.30.0
 _ZN11nymeaserver10MqttBroker15clientConnectedERK7QString@Base 0.30.0
 _ZN11nymeaserver10MqttBroker15publishReceivedERK7QStringS3_RK10QByteArray@Base 0.30.0
 _ZN11nymeaserver10MqttBroker16clientSubscribedERK7QStringS3_@Base 0.30.0
 _ZN11nymeaserver10MqttBroker16staticMetaObjectE@Base 0.30.0
 _ZN11nymeaserver10MqttBroker17onClientConnectedEiRK7QStringS3_RK12QHostAddress@Base 0.30.0
 _ZN11nymeaserver10MqttBroker17onPublishReceivedERK7QStringtS3_RK10QByteArray@Base 0.30.0
 _ZN11nymeaserver10MqttBroker18clientDisconnectedERK7QString@Base 0.30.0
 _ZN11nymeaserver10MqttBroker18clientUnsubscribedERK7QStringS3_@Base 0.30.0
 _ZN11nymeaserver10MqttBroker18onClientSubscribedERK7QStringS3_N4Mqtt3QoSE@Base 0.30.0
 _ZN11nymeaserver10MqttBroker20onClientDisconnectedERK7QString@Base 0.30.0
 _ZN11nymeaserver10MqttBroker20onClientUnsubscribedERK7QStringS3_@Base 0.30.0
 _ZN11nymeaserver10MqttBroker6policyERK7QString@Base 0.30.0
 _ZN11nymeaserver10MqttBroker7publishERK7QStringRK10QByteArray@Base 0.30.0
 _ZN11nymeaserver10MqttBroker8policiesEv@Base 0.30.0
 _ZN11nymeaserver10MqttBrokerC1EP7QObject@Base 0.30.0
 _ZN11nymeaserver10MqttBrokerC2EP7QObject@Base 0.30.0
 _ZN11nymeaserver10MqttBrokerD0Ev@Base 0.30.0
 _ZN11nymeaserver10MqttBrokerD1Ev@Base 0.30.0
 _ZN11nymeaserver10MqttBrokerD2Ev@Base 0.30.0
 _ZN11nymeaserver10MqttPolicy16staticMetaObjectE@Base 0.30.0
 _ZN11nymeaserver10RuleEngine10appendRuleERKNS_4RuleE@Base 0.30.0
 _ZN11nymeaserver10RuleEngine10enableRuleERK6RuleId@Base 0.30.0
 _ZN11nymeaserver10RuleEngine10removeRuleERK6RuleIdb@Base 0.30.0
 _ZN11nymeaserver10RuleEngine11disableRuleERK6RuleId@Base 0.30.0
 _ZN11nymeaserver10RuleEngine11qt_metacallEN11QMetaObject4CallEiPPv@Base 0.30.0
 _ZN11nymeaserver10RuleEngine11qt_metacastEPKc@Base 0.30.0
 _ZN11nymeaserver10RuleEngine11ruleRemovedERK6RuleId@Base 0.30.0
 _ZN11nymeaserver10RuleEngine12evaluateTimeERK9QDateTime@Base 0.30.0
 _ZN11nymeaserver10RuleEngine13containsEventERKNS_4RuleERK5EventRK12ThingClassId@Base 0.30.0
 _ZN11nymeaserver10RuleEngine13containsStateERKNS_14StateEvaluatorERK5Event@Base 0.30.0
 _ZN11nymeaserver10RuleEngine13evaluateEventERK5Event@Base 0.30.0
 _ZN11nymeaserver10RuleEngine14executeActionsERK6RuleId@Base 0.30.0
 _ZN11nymeaserver10RuleEngine15checkRuleActionERK10RuleActionRKNS_4RuleE@Base 0.30.0
 _ZN11nymeaserver10RuleEngine15loadRuleActionsEP13NymeaSettings@Base 0.30.0
 _ZN11nymeaserver10RuleEngine15saveRuleActionsEP13NymeaSettingsRK5QListI10RuleActionE@Base 0.30.0
 _ZN11nymeaserver10RuleEngine16staticMetaObjectE@Base 0.30.0
 _ZN11nymeaserver10RuleEngine17getEventParamTypeERK11EventTypeIdRK11ParamTypeId@Base 0.30.0
 _ZN11nymeaserver10RuleEngine18executeExitActionsERK6RuleId@Base 0.30.0
 _ZN11nymeaserver10RuleEngine18getActionParamTypeERK12ActionTypeIdRK11ParamTypeId@Base 0.30.0
 _ZN11nymeaserver10RuleEngine19removeThingFromRuleERK6RuleIdRK7ThingId@Base 0.30.0
 _ZN11nymeaserver10RuleEngine20checkRuleActionParamERK15RuleActionParamRK10ActionTypeRKNS_4RuleE@Base 0.30.0
 _ZN11nymeaserver10RuleEngine24ruleConfigurationChangedERKNS_4RuleE@Base 0.30.0
 _ZN11nymeaserver10RuleEngine4initEv@Base 0.30.0
 _ZN11nymeaserver10RuleEngine7addRuleERKNS_4RuleEb@Base 0.30.0
 _ZN11nymeaserver10RuleEngine8editRuleERKNS_4RuleE@Base 0.30.0
 _ZN11nymeaserver10RuleEngine8findRuleERK6RuleId@Base 0.30.0
 _ZN11nymeaserver10RuleEngine8saveRuleERKNS_4RuleE@Base 0.30.0
 _ZN11nymeaserver10RuleEngine9ruleAddedERKNS_4RuleE@Base 0.30.0
 _ZN11nymeaserver10RuleEngineC1EP7QObject@Base 0.30.0
 _ZN11nymeaserver10RuleEngineC2EP7QObject@Base 0.30.0
 _ZN11nymeaserver10RuleEngineD0Ev@Base 0.30.0
 _ZN11nymeaserver10RuleEngineD1Ev@Base 0.30.0
 _ZN11nymeaserver10RuleEngineD2Ev@Base 0.30.0
 _ZN11nymeaserver10SerialPort16staticMetaObjectE@Base 0.30.0
 _ZN11nymeaserver11DatabaseJob11qt_metacallEN11QMetaObject4CallEiPPv@Base 0.30.0
 _ZN11nymeaserver11DatabaseJob11qt_metacastEPKc@Base 0.30.0
 _ZN11nymeaserver11DatabaseJob16staticMetaObjectE@Base 0.30.0
 _ZN11nymeaserver11DatabaseJob8finishedEv@Base 0.30.0
 _ZN11nymeaserver11DeviceClass16staticMetaObjectE@Base 0.30.0
 _ZN11nymeaserver11DeviceClassC1ERK10ThingClass@Base 0.30.0
 _ZN11nymeaserver11DeviceClassC2ERK10ThingClass@Base 0.30.0
 _ZN11nymeaserver11HttpRequest10appendDataERK10QByteArray@Base 0.30.0
 _ZN11nymeaserver11HttpRequest20getRequestMethodTypeERK7QString@Base 0.30.0
 _ZN11nymeaserver11HttpRequest8validateEv@Base 0.30.0
 _ZN11nymeaserver11HttpRequestC1E10QByteArray@Base 0.30.0
 _ZN11nymeaserver11HttpRequestC1Ev@Base 0.30.0
 _ZN11nymeaserver11HttpRequestC2E10QByteArray@Base 0.30.0
 _ZN11nymeaserver11HttpRequestC2Ev@Base 0.30.0
 _ZN11nymeaserver11ScriptEvent10classBeginEv@Base 0.30.0
 _ZN11nymeaserver11ScriptEvent10setThingIdERK7QString@Base 0.30.0
 _ZN11nymeaserver11ScriptEvent11qt_metacallEN11QMetaObject4CallEiPPv@Base 0.30.0
 _ZN11nymeaserver11ScriptEvent11qt_metacastEPKc@Base 0.30.0
 _ZN11nymeaserver11ScriptEvent12setEventNameERK7QString@Base 0.30.0
 _ZN11nymeaserver11ScriptEvent14setEventTypeIdERK7QString@Base 0.30.0
 _ZN11nymeaserver11ScriptEvent14thingIdChangedEv@Base 0.30.0
 _ZN11nymeaserver11ScriptEvent16eventNameChangedEv@Base 0.30.0
 _ZN11nymeaserver11ScriptEvent16onEventTriggeredERK5Event@Base 0.30.0
 _ZN11nymeaserver11ScriptEvent16staticMetaObjectE@Base 0.30.0
 _ZN11nymeaserver11ScriptEvent17componentCompleteEv@Base 0.30.0
 _ZN11nymeaserver11ScriptEvent18eventTypeIdChangedEv@Base 0.30.0
 _ZN11nymeaserver11ScriptEvent9triggeredERK4QMapI7QString8QVariantE@Base 0.30.0
 _ZN11nymeaserver11ScriptEventC1EP7QObject@Base 0.30.0
 _ZN11nymeaserver11ScriptEventC2EP7QObject@Base 0.30.0
 _ZN11nymeaserver11ScriptState10classBeginEv@Base 0.30.0
 _ZN11nymeaserver11ScriptState10setThingIdERK7QString@Base 0.30.0
 _ZN11nymeaserver11ScriptState11qt_metacallEN11QMetaObject4CallEiPPv@Base 0.30.0
 _ZN11nymeaserver11ScriptState11qt_metacastEPKc@Base 0.30.0
 _ZN11nymeaserver11ScriptState12setStateNameERK7QString@Base 0.30.0
 _ZN11nymeaserver11ScriptState12valueChangedEv@Base 0.30.0
 _ZN11nymeaserver11ScriptState14connectToThingEv@Base 0.30.0
 _ZN11nymeaserver11ScriptState14setStateTypeIdERK7QString@Base 0.30.0
 _ZN11nymeaserver11ScriptState14thingIdChangedEv@Base 0.30.0
 _ZN11nymeaserver11ScriptState16stateTypeChangedEv@Base 0.30.0
 _ZN11nymeaserver11ScriptState16staticMetaObjectE@Base 0.30.0
 _ZN11nymeaserver11ScriptState17componentCompleteEv@Base 0.30.0
 _ZN11nymeaserver11ScriptState19onThingStateChangedEP5ThingRK11StateTypeId@Base 0.30.0
 _ZN11nymeaserver11ScriptState5storeEv@Base 0.30.0
 _ZN11nymeaserver11ScriptState7restoreEv@Base 0.30.0
 _ZN11nymeaserver11ScriptState8setValueERK8QVariant@Base 0.30.0
 _ZN11nymeaserver11ScriptStateC1EP7QObject@Base 0.30.0
 _ZN11nymeaserver11ScriptStateC2EP7QObject@Base 0.30.0
 _ZN11nymeaserver11SerialPorts16staticMetaObjectE@Base 0.30.0
 _ZN11nymeaserver11TagsHandler10TagRemovedERK4QMapI7QString8QVariantE@Base 0.30.0
 _ZN11nymeaserver11TagsHandler10onTagAddedERKNS_3TagE@Base 0.30.0
 _ZN11nymeaserver11TagsHandler11qt_metacallEN11QMetaObject4CallEiPPv@Base 0.30.0
 _ZN11nymeaserver11TagsHandler11qt_metacastEPKc@Base 0.30.0
 _ZN11nymeaserver11TagsHandler12onTagRemovedERKNS_3TagE@Base 0.30.0
 _ZN11nymeaserver11TagsHandler15TagValueChangedERK4QMapI7QString8QVariantE@Base 0.30.0
 _ZN11nymeaserver11TagsHandler16staticMetaObjectE@Base 0.30.0
 _ZN11nymeaserver11TagsHandler17onTagValueChangedERKNS_3TagE@Base 0.30.0
 _ZN11nymeaserver11TagsHandler8TagAddedERK4QMapI7QString8QVariantE@Base 0.30.0
 _ZN11nymeaserver11TagsHandlerC1EP7QObject@Base 0.30.0
 _ZN11nymeaserver11TagsHandlerC2EP7QObject@Base 0.30.0
 _ZN11nymeaserver11TagsStorage10tagRemovedERKNS_3TagE@Base 0.30.0
 _ZN11nymeaserver11TagsStorage11qt_metacallEN11QMetaObject4CallEiPPv@Base 0.30.0
 _ZN11nymeaserver11TagsStorage11qt_metacastEPKc@Base 0.30.0
 _ZN11nymeaserver11TagsStorage11ruleRemovedERK6RuleId@Base 0.30.0
 _ZN11nymeaserver11TagsStorage12thingRemovedERK7ThingId@Base 0.30.0
 _ZN11nymeaserver11TagsStorage15tagValueChangedERKNS_3TagE@Base 0.30.0
 _ZN11nymeaserver11TagsStorage16staticMetaObjectE@Base 0.30.0
 _ZN11nymeaserver11TagsStorage6addTagERKNS_3TagE@Base 0.30.0
 _ZN11nymeaserver11TagsStorage7saveTagERKNS_3TagE@Base 0.30.0
 _ZN11nymeaserver11TagsStorage8tagAddedERKNS_3TagE@Base 0.30.0
 _ZN11nymeaserver11TagsStorage9removeTagERKNS_3TagE@Base 0.30.0
 _ZN11nymeaserver11TagsStorage9unsaveTagERKNS_3TagE@Base 0.30.0
 _ZN11nymeaserver11TagsStorageC1EP12ThingManagerPNS_10RuleEngineEP7QObject@Base 0.30.0
 _ZN11nymeaserver11TagsStorageC2EP12ThingManagerPNS_10RuleEngineEP7QObject@Base 0.30.0
 _ZN11nymeaserver11TimeManager10timerEventEP11QTimerEvent@Base 0.30.0
 _ZN11nymeaserver11TimeManager11qt_metacallEN11QMetaObject4CallEiPPv@Base 0.30.0
 _ZN11nymeaserver11TimeManager11qt_metacastEPKc@Base 0.30.0
 _ZN11nymeaserver11TimeManager15dateTimeChangedERK9QDateTime@Base 0.30.0
 _ZN11nymeaserver11TimeManager16staticMetaObjectE@Base 0.30.0
 _ZN11nymeaserver11TimeManager4tickEv@Base 0.30.0
 _ZN11nymeaserver11TimeManager7setTimeERK9QDateTime@Base 0.30.0
 _ZN11nymeaserver11TimeManager9stopTimerEv@Base 0.30.0
 _ZN11nymeaserver11TimeManagerC1EP7QObject@Base 0.30.0
 _ZN11nymeaserver11TimeManagerC2EP7QObject@Base 0.30.0
 _ZN11nymeaserver11UserManager10createUserERK7QStringS3_@Base 0.30.0
 _ZN11nymeaserver11UserManager10removeUserERK7QString@Base 0.30.0
 _ZN11nymeaserver11UserManager11qt_metacallEN11QMetaObject4CallEiPPv@Base 0.30.0
 _ZN11nymeaserver11UserManager11qt_metacastEPKc@Base 0.30.0
 _ZN11nymeaserver11UserManager11removeTokenERK5QUuid@Base 0.30.0
 _ZN11nymeaserver11UserManager11verifyTokenERK10QByteArray@Base 0.30.0
 _ZN11nymeaserver11UserManager12authenticateERK7QStringS3_S3_@Base 0.30.0
 _ZN11nymeaserver11UserManager14changePasswordERK7QStringS3_@Base 0.30.0
 _ZN11nymeaserver11UserManager16staticMetaObjectE@Base 0.30.0
 _ZN11nymeaserver11UserManager19onPushButtonPressedEv@Base 0.30.0
 _ZN11nymeaserver11UserManager20cancelPushButtonAuthEi@Base 0.30.0
 _ZN11nymeaserver11UserManager21requestPushButtonAuthERK7QString@Base 0.30.0
 _ZN11nymeaserver11UserManager22pushButtonAuthFinishedEibRK10QByteArray@Base 0.30.0
 _ZN11nymeaserver11UserManager6initDBEv@Base 0.30.0
 _ZN11nymeaserver11UserManager6rotateERK7QString@Base 0.30.0
 _ZN11nymeaserver11UserManagerC1ERK7QStringP7QObject@Base 0.30.0
 _ZN11nymeaserver11UserManagerC2ERK7QStringP7QObject@Base 0.30.0
 _ZN11nymeaserver12CloudManager10pairDeviceERK7QStringS3_@Base 0.30.0
 _ZN11nymeaserver12CloudManager10setEnabledEb@Base 0.30.0
 _ZN11nymeaserver12CloudManager11connect2awsEv@Base 0.30.0
 _ZN11nymeaserver12CloudManager11qt_metacallEN11QMetaObject4CallEiPPv@Base 0.30.0
 _ZN11nymeaserver12CloudManager11qt_metacastEPKc@Base 0.30.0
 _ZN11nymeaserver12CloudManager12awsConnectedEv@Base 0.30.0
 _ZN11nymeaserver12CloudManager12pairingReplyE7QStringiRKS1_@Base 0.30.0
 _ZN11nymeaserver12CloudManager13setDeviceNameERK7QString@Base 0.30.0
 _ZN11nymeaserver12CloudManager15awsDisconnectedEv@Base 0.30.0
 _ZN11nymeaserver12CloudManager16staticMetaObjectE@Base 0.30.0
 _ZN11nymeaserver12CloudManager17onPairingFinishedERK7QStringiS3_@Base 0.30.0
 _ZN11nymeaserver12CloudManager18onlineStateChangedEv@Base 0.30.0
 _ZN11nymeaserver12CloudManager22connectionStateChangedEv@Base 0.30.0
 _ZN11nymeaserver12CloudManager25installClientCertificatesERK10QByteArrayS3_S3_S3_RK7QString@Base 0.30.0
 _ZN11nymeaserver12CloudManagerC1EPNS_18NymeaConfigurationEP14NetworkManagerP7QObject@Base 0.30.0
 _ZN11nymeaserver12CloudManagerC2EPNS_18NymeaConfigurationEP14NetworkManagerP7QObject@Base 0.30.0
 _ZN11nymeaserver12CloudManagerD0Ev@Base 0.30.0
 _ZN11nymeaserver12CloudManagerD1Ev@Base 0.30.0
 _ZN11nymeaserver12CloudManagerD2Ev@Base 0.30.0
 _ZN11nymeaserver12DevicePlugin11qt_metacallEN11QMetaObject4CallEiPPv@Base 0.30.0
 _ZN11nymeaserver12DevicePlugin11qt_metacastEPKc@Base 0.30.0
 _ZN11nymeaserver12DevicePlugin16staticMetaObjectE@Base 0.30.0
 _ZN11nymeaserver12EventHandler11qt_metacallEN11QMetaObject4CallEiPPv@Base 0.30.0
 _ZN11nymeaserver12EventHandler11qt_metacastEPKc@Base 0.30.0
 _ZN11nymeaserver12EventHandler14EventTriggeredERK4QMapI7QString8QVariantE@Base 0.30.0
 _ZN11nymeaserver12EventHandler14eventTriggeredERK5Event@Base 0.30.0
 _ZN11nymeaserver12EventHandler16staticMetaObjectE@Base 0.30.0
 _ZN11nymeaserver12EventHandlerC1EP7QObject@Base 0.30.0
 _ZN11nymeaserver12EventHandlerC2EP7QObject@Base 0.30.0
 _ZN11nymeaserver12RulesHandler10EnableRuleERK4QMapI7QString8QVariantE@Base 0.30.0
 _ZN11nymeaserver12RulesHandler10RemoveRuleERK4QMapI7QString8QVariantE@Base 0.30.0
 _ZN11nymeaserver12RulesHandler11DisableRuleERK4QMapI7QString8QVariantE@Base 0.30.0
 _ZN11nymeaserver12RulesHandler11RuleRemovedERK4QMapI7QString8QVariantE@Base 0.30.0
 _ZN11nymeaserver12RulesHandler11qt_metacallEN11QMetaObject4CallEiPPv@Base 0.30.0
 _ZN11nymeaserver12RulesHandler11qt_metacastEPKc@Base 0.30.0
 _ZN11nymeaserver12RulesHandler14ExecuteActionsERK4QMapI7QString8QVariantE@Base 0.30.0
 _ZN11nymeaserver12RulesHandler14GetRuleDetailsERK4QMapI7QString8QVariantE@Base 0.30.0
 _ZN11nymeaserver12RulesHandler16staticMetaObjectE@Base 0.30.0
 _ZN11nymeaserver12RulesHandler17RuleActiveChangedERK4QMapI7QString8QVariantE@Base 0.30.0
 _ZN11nymeaserver12RulesHandler18ExecuteExitActionsERK4QMapI7QString8QVariantE@Base 0.30.0
 _ZN11nymeaserver12RulesHandler19packRuleDescriptionERKNS_4RuleE@Base 0.30.0
 _ZN11nymeaserver12RulesHandler21ruleAddedNotificationERKNS_4RuleE@Base 0.30.0
 _ZN11nymeaserver12RulesHandler23ruleRemovedNotificationERK6RuleId@Base 0.30.0
 _ZN11nymeaserver12RulesHandler24RuleConfigurationChangedERK4QMapI7QString8QVariantE@Base 0.30.0
 _ZN11nymeaserver12RulesHandler29ruleActiveChangedNotificationERKNS_4RuleE@Base 0.30.0
 _ZN11nymeaserver12RulesHandler36ruleConfigurationChangedNotificationERKNS_4RuleE@Base 0.30.0
 _ZN11nymeaserver12RulesHandler7AddRuleERK4QMapI7QString8QVariantE@Base 0.30.0
 _ZN11nymeaserver12RulesHandler8EditRuleERK4QMapI7QString8QVariantE@Base 0.30.0
 _ZN11nymeaserver12RulesHandler8GetRulesERK4QMapI7QString8QVariantE@Base 0.30.0
 _ZN11nymeaserver12RulesHandler9FindRulesERK4QMapI7QString8QVariantE@Base 0.30.0
 _ZN11nymeaserver12RulesHandler9RuleAddedERK4QMapI7QString8QVariantE@Base 0.30.0
 _ZN11nymeaserver12RulesHandlerC1EP7QObject@Base 0.30.0
 _ZN11nymeaserver12RulesHandlerC2EP7QObject@Base 0.30.0
 _ZN11nymeaserver12ScriptAction10classBeginEv@Base 0.30.0
 _ZN11nymeaserver12ScriptAction10setThingIdERK7QString@Base 0.30.0
 _ZN11nymeaserver12ScriptAction11qt_metacallEN11QMetaObject4CallEiPPv@Base 0.30.0
 _ZN11nymeaserver12ScriptAction11qt_metacastEPKc@Base 0.30.0
 _ZN11nymeaserver12ScriptAction13setActionNameERK7QString@Base 0.30.0
 _ZN11nymeaserver12ScriptAction14thingIdChangedEv@Base 0.30.0
 _ZN11nymeaserver12ScriptAction15setActionTypeIdERK7QString@Base 0.30.0
 _ZN11nymeaserver12ScriptAction16setInterfaceNameERK7QString@Base 0.30.0
 _ZN11nymeaserver12ScriptAction16staticMetaObjectE@Base 0.30.0
 _ZN11nymeaserver12ScriptAction17actionNameChangedEv@Base 0.30.0
 _ZN11nymeaserver12ScriptAction17componentCompleteEv@Base 0.30.0
 _ZN11nymeaserver12ScriptAction19actionTypeIdChangedEv@Base 0.30.0
 _ZN11nymeaserver12ScriptAction20interfaceNameChangedEv@Base 0.30.0
 _ZN11nymeaserver12ScriptAction7executeERK4QMapI7QString8QVariantE@Base 0.30.0
 _ZN11nymeaserver12ScriptActionC1EP7QObject@Base 0.30.0
 _ZN11nymeaserver12ScriptActionC2EP7QObject@Base 0.30.0
 _ZN11nymeaserver12ScriptEngine10editScriptERK5QUuidRK10QByteArray@Base 0.30.0
 _ZN11nymeaserver12ScriptEngine10loadScriptEPNS_6ScriptE@Base 0.30.0
 _ZN11nymeaserver12ScriptEngine11loadScriptsEv@Base 0.30.0
 _ZN11nymeaserver12ScriptEngine11qt_metacallEN11QMetaObject4CallEiPPv@Base 0.30.0
 _ZN11nymeaserver12ScriptEngine11qt_metacastEPKc@Base 0.30.0
 _ZN11nymeaserver12ScriptEngine11scriptAddedERKNS_6ScriptE@Base 0.30.0
 _ZN11nymeaserver12ScriptEngine12removeScriptERK5QUuid@Base 0.30.0
 _ZN11nymeaserver12ScriptEngine12renameScriptERK5QUuidRK7QString@Base 0.30.0
 _ZN11nymeaserver12ScriptEngine12unloadScriptEPNS_6ScriptE@Base 0.30.0
 _ZN11nymeaserver12ScriptEngine13s_loggerMutexE@Base 0.30.0
 _ZN11nymeaserver12ScriptEngine13scriptChangedERKNS_6ScriptE@Base 0.30.0
 _ZN11nymeaserver12ScriptEngine13scriptContentERK5QUuid@Base 0.30.0
 _ZN11nymeaserver12ScriptEngine13scriptRemovedERK5QUuid@Base 0.30.0
 _ZN11nymeaserver12ScriptEngine13scriptRenamedERKNS_6ScriptE@Base 0.30.0
 _ZN11nymeaserver12ScriptEngine15onScriptMessageE9QtMsgTypeRK18QMessageLogContextRK7QString@Base 0.30.0
 _ZN11nymeaserver12ScriptEngine16staticMetaObjectE@Base 0.30.0
 _ZN11nymeaserver12ScriptEngine17logCategoryFilterEP16QLoggingCategory@Base 0.30.0
 _ZN11nymeaserver12ScriptEngine17logMessageHandlerE9QtMsgTypeRK18QMessageLogContextRK7QString@Base 0.30.0
 _ZN11nymeaserver12ScriptEngine19s_oldCategoryFilterE@Base 0.30.0
 _ZN11nymeaserver12ScriptEngine20scriptConsoleMessageERK5QUuidNS0_17ScriptMessageTypeERK7QString@Base 0.30.0
 _ZN11nymeaserver12ScriptEngine24s_upstreamMessageHandlerE@Base 0.30.0
 _ZN11nymeaserver12ScriptEngine7scriptsEv@Base 0.30.0
 _ZN11nymeaserver12ScriptEngine8baseNameERK5QUuid@Base 0.30.0
 _ZN11nymeaserver12ScriptEngine9addScriptERK7QStringRK10QByteArray@Base 0.30.0
 _ZN11nymeaserver12ScriptEngine9s_enginesE@Base 0.30.0
 _ZN11nymeaserver12ScriptEngineC1EP12ThingManagerP7QObject@Base 0.30.0
 _ZN11nymeaserver12ScriptEngineC2EP12ThingManagerP7QObject@Base 0.30.0
 _ZN11nymeaserver12ScriptEngineD0Ev@Base 0.30.0
 _ZN11nymeaserver12ScriptEngineD1Ev@Base 0.30.0
 _ZN11nymeaserver12ScriptEngineD2Ev@Base 0.30.0
 _ZN11nymeaserver12StateHandler11qt_metacallEN11QMetaObject4CallEiPPv@Base 0.30.0
 _ZN11nymeaserver12StateHandler11qt_metacastEPKc@Base 0.30.0
 _ZN11nymeaserver12StateHandler16staticMetaObjectE@Base 0.30.0
 _ZN11nymeaserver12StateHandlerC1EP7QObject@Base 0.30.0
 _ZN11nymeaserver12StateHandlerC2EP7QObject@Base 0.30.0
 _ZN11nymeaserver12UsersHandler10CreateUserERK4QMapI7QString8QVariantE@Base 0.30.0
 _ZN11nymeaserver12UsersHandler11GetUserInfoERK4QMapI7QString8QVariantERK11JsonContext@Base 0.30.0
 _ZN11nymeaserver12UsersHandler11RemoveTokenERK4QMapI7QString8QVariantERK11JsonContext@Base 0.30.0
 _ZN11nymeaserver12UsersHandler11qt_metacallEN11QMetaObject4CallEiPPv@Base 0.30.0
 _ZN11nymeaserver12UsersHandler11qt_metacastEPKc@Base 0.30.0
 _ZN11nymeaserver12UsersHandler12AuthenticateERK4QMapI7QString8QVariantE@Base 0.30.0
 _ZN11nymeaserver12UsersHandler14ChangePasswordERK4QMapI7QString8QVariantERK11JsonContext@Base 0.30.0
 _ZN11nymeaserver12UsersHandler16staticMetaObjectE@Base 0.30.0
 _ZN11nymeaserver12UsersHandler21RequestPushButtonAuthERK4QMapI7QString8QVariantERK11JsonContext@Base 0.30.0
 _ZN11nymeaserver12UsersHandler22PushButtonAuthFinishedERK5QUuidRK4QMapI7QString8QVariantE@Base 0.30.0
 _ZN11nymeaserver12UsersHandler24onPushButtonAuthFinishedEibRK10QByteArray@Base 0.30.0
 _ZN11nymeaserver12UsersHandler9GetTokensERK4QMapI7QString8QVariantERK11JsonContext@Base 0.30.0
 _ZN11nymeaserver12UsersHandlerC1EPNS_11UserManagerEP7QObject@Base 0.30.0
 _ZN11nymeaserver12UsersHandlerC2EPNS_11UserManagerEP7QObject@Base 0.30.0
 _ZN11nymeaserver13ActionHandler11qt_metacallEN11QMetaObject4CallEiPPv@Base 0.30.0
 _ZN11nymeaserver13ActionHandler11qt_metacastEPKc@Base 0.30.0
 _ZN11nymeaserver13ActionHandler13ExecuteActionERK4QMapI7QString8QVariantERK11JsonContext@Base 0.30.0
 _ZN11nymeaserver13ActionHandler16staticMetaObjectE@Base 0.30.0
 _ZN11nymeaserver13ActionHandler18ExecuteBrowserItemERK4QMapI7QString8QVariantE@Base 0.30.0
 _ZN11nymeaserver13ActionHandler24ExecuteBrowserItemActionERK4QMapI7QString8QVariantE@Base 0.30.0
 _ZN11nymeaserver13ActionHandlerC1EP7QObject@Base 0.30.0
 _ZN11nymeaserver13ActionHandlerC2EP7QObject@Base 0.30.0
 _ZN11nymeaserver13DeviceClasses16staticMetaObjectE@Base 0.30.0
 _ZN11nymeaserver13DeviceHandler10EditDeviceERK4QMapI7QString8QVariantE@Base 0.30.0
 _ZN11nymeaserver13DeviceHandler10PairDeviceERK4QMapI7QString8QVariantERK11JsonContext@Base 0.30.0
 _ZN11nymeaserver13DeviceHandler11DeviceAddedERK4QMapI7QString8QVariantE@Base 0.30.0
 _ZN11nymeaserver13DeviceHandler11qt_metacallEN11QMetaObject4CallEiPPv@Base 0.30.0
 _ZN11nymeaserver13DeviceHandler11qt_metacastEPKc@Base 0.30.0
 _ZN11nymeaserver13DeviceHandler12StateChangedERK4QMapI7QString8QVariantE@Base 0.30.0
 _ZN11nymeaserver13DeviceHandler13DeviceChangedERK4QMapI7QString8QVariantE@Base 0.30.0
 _ZN11nymeaserver13DeviceHandler13DeviceRemovedERK4QMapI7QString8QVariantE@Base 0.30.0
 _ZN11nymeaserver13DeviceHandler13ExecuteActionERK4QMapI7QString8QVariantERK11JsonContext@Base 0.30.0
 _ZN11nymeaserver13DeviceHandler14ConfirmPairingERK4QMapI7QString8QVariantERK11JsonContext@Base 0.30.0
 _ZN11nymeaserver13DeviceHandler14EventTriggeredERK4QMapI7QString8QVariantE@Base 0.30.0
 _ZN11nymeaserver13DeviceHandler15packBrowserItemERK11BrowserItem@Base 0.30.0
 _ZN11nymeaserver13DeviceHandler16staticMetaObjectE@Base 0.30.0
 _ZN11nymeaserver13DeviceHandler17ReconfigureDeviceERK4QMapI7QString8QVariantERK11JsonContext@Base 0.30.0
 _ZN11nymeaserver13DeviceHandler17SetDeviceSettingsERK4QMapI7QString8QVariantE@Base 0.30.0
 _ZN11nymeaserver13DeviceHandler18ExecuteBrowserItemERK4QMapI7QString8QVariantERK11JsonContext@Base 0.30.0
 _ZN11nymeaserver13DeviceHandler18deviceStateChangedEP5ThingRK5QUuidRK8QVariant@Base 0.30.0
 _ZN11nymeaserver13DeviceHandler19AddConfiguredDeviceERK4QMapI7QString8QVariantERK11JsonContext@Base 0.30.0
 _ZN11nymeaserver13DeviceHandler19pluginConfigChangedERK8PluginIdRK9ParamList@Base 0.30.0
 _ZN11nymeaserver13DeviceHandler20DeviceSettingChangedERK4QMapI7QString8QVariantE@Base 0.30.0
 _ZN11nymeaserver13DeviceHandler21translateNotificationERK7QStringRK4QMapIS1_8QVariantERK7QLocale@Base 0.30.0
 _ZN11nymeaserver13DeviceHandler22RemoveConfiguredDeviceERK4QMapI7QString8QVariantE@Base 0.30.0
 _ZN11nymeaserver13DeviceHandler22SetPluginConfigurationERK4QMapI7QString8QVariantE@Base 0.30.0
 _ZN11nymeaserver13DeviceHandler23deviceAddedNotificationEP5Thing@Base 0.30.0
 _ZN11nymeaserver13DeviceHandler24ExecuteBrowserItemActionERK4QMapI7QString8QVariantERK11JsonContext@Base 0.30.0
 _ZN11nymeaserver13DeviceHandler25deviceChangedNotificationEP5Thing@Base 0.30.0
 _ZN11nymeaserver13DeviceHandler25deviceRemovedNotificationERK5QUuid@Base 0.30.0
 _ZN11nymeaserver13DeviceHandler26PluginConfigurationChangedERK4QMapI7QString8QVariantE@Base 0.30.0
 _ZN11nymeaserver13DeviceHandler32deviceSettingChangedNotificationERK7ThingIdRK11ParamTypeIdRK8QVariant@Base 0.30.0
 _ZN11nymeaserver13DeviceHandlerC1EP7QObject@Base 0.30.0
 _ZN11nymeaserver13DeviceHandlerC2EP7QObject@Base 0.30.0
 _ZN11nymeaserver13DevicePlugins16staticMetaObjectE@Base 0.30.0
 _ZN11nymeaserver13JsonValidator11validateMapERK4QMapI7QString8QVariantES6_S6_6QFlagsIN9QIODevice12OpenModeFlagEE@Base 0.30.0
 _ZN11nymeaserver13JsonValidator13validateEntryERK8QVariantS3_RK4QMapI7QStringS1_E6QFlagsIN9QIODevice12OpenModeFlagEE@Base 0.30.0
 _ZN11nymeaserver13JsonValidator14validateParamsERK4QMapI7QString8QVariantERKS2_S6_@Base 0.30.0
 _ZN11nymeaserver13JsonValidator15validateReturnsERK4QMapI7QString8QVariantERKS2_S6_@Base 0.30.0
 _ZN11nymeaserver13JsonValidator26validateNotificationParamsERK4QMapI7QString8QVariantERKS2_S6_@Base 0.30.0
 _ZN11nymeaserver13JsonValidator9checkRefsERK4QMapI7QString8QVariantES6_@Base 0.30.0
 _ZN11nymeaserver13MockTcpServer10injectDataERK5QUuidRK10QByteArray@Base 0.30.0
 _ZN11nymeaserver13MockTcpServer10stopServerEv@Base 0.30.0
 _ZN11nymeaserver13MockTcpServer11qt_metacallEN11QMetaObject4CallEiPPv@Base 0.30.0
 _ZN11nymeaserver13MockTcpServer11qt_metacastEPKc@Base 0.30.0
 _ZN11nymeaserver13MockTcpServer11startServerEv@Base 0.30.0
 _ZN11nymeaserver13MockTcpServer12outgoingDataERK5QUuidRK10QByteArray@Base 0.30.0
 _ZN11nymeaserver13MockTcpServer12s_allServersE@Base 0.30.0
 _ZN11nymeaserver13MockTcpServer16staticMetaObjectE@Base 0.30.0
 _ZN11nymeaserver13MockTcpServer17reconfigureServerERK12QHostAddressRKj@Base 0.30.0
 _ZN11nymeaserver13MockTcpServer20connectionTerminatedERK5QUuid@Base 0.30.0
 _ZN11nymeaserver13MockTcpServer25terminateClientConnectionERK5QUuid@Base 0.30.0
 _ZN11nymeaserver13MockTcpServer7serversEv@Base 0.30.0
 _ZN11nymeaserver13MockTcpServer8sendDataERK5QListI5QUuidERK10QByteArray@Base 0.30.0
 _ZN11nymeaserver13MockTcpServer8sendDataERK5QUuidRK10QByteArray@Base 0.30.0
 _ZN11nymeaserver13MockTcpServerC1EP7QObject@Base 0.30.0
 _ZN11nymeaserver13MockTcpServerC2EP7QObject@Base 0.30.0
 _ZN11nymeaserver13MockTcpServerD0Ev@Base 0.30.0
 _ZN11nymeaserver13MockTcpServerD1Ev@Base 0.30.0
 _ZN11nymeaserver13MockTcpServerD2Ev@Base 0.30.0
 _ZN11nymeaserver13ServerManager11qt_metacallEN11QMetaObject4CallEiPPv@Base 0.30.0
 _ZN11nymeaserver13ServerManager11qt_metacastEPKc@Base 0.30.0
 _ZN11nymeaserver13ServerManager13setServerNameERK7QString@Base 0.30.0
 _ZN11nymeaserver13ServerManager15loadCertificateERK7QStringS3_@Base 0.30.0
 _ZN11nymeaserver13ServerManager16staticMetaObjectE@Base 0.30.0
 _ZN11nymeaserver13ServerManager17mqttPolicyChangedERK7QString@Base 0.30.0
 _ZN11nymeaserver13ServerManager17mqttPolicyRemovedERK7QString@Base 0.30.0
 _ZN11nymeaserver13ServerManager23registerZeroConfServiceERKNS_19ServerConfigurationERK7QStringS6_@Base 0.30.0
 _ZN11nymeaserver13ServerManager25unregisterZeroConfServiceERK7QStringS3_@Base 0.30.0
 _ZN11nymeaserver13ServerManager29tcpServerConfigurationChangedERK7QString@Base 0.30.0
 _ZN11nymeaserver13ServerManager29tcpServerConfigurationRemovedERK7QString@Base 0.30.0
 _ZN11nymeaserver13ServerManager29webServerConfigurationChangedERK7QString@Base 0.30.0
 _ZN11nymeaserver13ServerManager29webServerConfigurationRemovedERK7QString@Base 0.30.0
 _ZN11nymeaserver13ServerManager30mqttServerConfigurationChangedERK7QString@Base 0.30.0
 _ZN11nymeaserver13ServerManager30mqttServerConfigurationRemovedERK7QString@Base 0.30.0
 _ZN11nymeaserver13ServerManager35webSocketServerConfigurationChangedERK7QString@Base 0.30.0
 _ZN11nymeaserver13ServerManager35webSocketServerConfigurationRemovedERK7QString@Base 0.30.0
 _ZN11nymeaserver13ServerManagerC1EPNS_8PlatformEPNS_18NymeaConfigurationERK11QStringListP7QObject@Base 0.30.0
 _ZN11nymeaserver13ServerManagerC2EPNS_8PlatformEPNS_18NymeaConfigurationERK11QStringListP7QObject@Base 0.30.0
 _ZN11nymeaserver13SystemHandler11qt_metacallEN11QMetaObject4CallEiPPv@Base 0.30.0
 _ZN11nymeaserver13SystemHandler11qt_metacastEPKc@Base 0.30.0
 _ZN11nymeaserver13SystemHandler12PackageAddedERK4QMapI7QString8QVariantE@Base 0.30.0
 _ZN11nymeaserver13SystemHandler14PackageChangedERK4QMapI7QString8QVariantE@Base 0.30.0
 _ZN11nymeaserver13SystemHandler14PackageRemovedERK4QMapI7QString8QVariantE@Base 0.30.0
 _ZN11nymeaserver13SystemHandler15GetCapabilitiesERK4QMapI7QString8QVariantE@Base 0.30.0
 _ZN11nymeaserver13SystemHandler15RepositoryAddedERK4QMapI7QString8QVariantE@Base 0.30.0
 _ZN11nymeaserver13SystemHandler16staticMetaObjectE@Base 0.30.0
 _ZN11nymeaserver13SystemHandler17RepositoryChangedERK4QMapI7QString8QVariantE@Base 0.30.0
 _ZN11nymeaserver13SystemHandler17RepositoryRemovedERK4QMapI7QString8QVariantE@Base 0.30.0
 _ZN11nymeaserver13SystemHandler19CapabilitiesChangedERK4QMapI7QString8QVariantE@Base 0.30.0
 _ZN11nymeaserver13SystemHandler19UpdateStatusChangedERK4QMapI7QString8QVariantE@Base 0.30.0
 _ZN11nymeaserver13SystemHandler21onCapabilitiesChangedEv@Base 0.30.0
 _ZN11nymeaserver13SystemHandler24TimeConfigurationChangedERK4QMapI7QString8QVariantE@Base 0.30.0
 _ZN11nymeaserver13SystemHandlerC1EPNS_8PlatformEP7QObject@Base 0.30.0
 _ZN11nymeaserver13SystemHandlerC2EPNS_8PlatformEP7QObject@Base 0.30.0
 _ZN11nymeaserver13TokenInfoList16staticMetaObjectE@Base 0.30.0
 _ZN11nymeaserver13TokenInfoList3putERK8QVariant@Base 0.30.0
 _ZN11nymeaserver13ZigbeeAdapter11setBaudRateEi@Base 0.30.0
 _ZN11nymeaserver13ZigbeeAdapter12backendNamesEv@Base 0.30.0
 _ZN11nymeaserver13ZigbeeAdapter13setSerialPortERK7QString@Base 0.30.0
 _ZN11nymeaserver13ZigbeeAdapter14setBackendTypeENS0_17ZigbeeBackendTypeE@Base 0.30.0
 _ZN11nymeaserver13ZigbeeAdapter14setDescriptionERK7QString@Base 0.30.0
 _ZN11nymeaserver13ZigbeeAdapter15setSerialNumberERK7QString@Base 0.30.0
 _ZN11nymeaserver13ZigbeeAdapter16staticMetaObjectE@Base 0.30.0
 _ZN11nymeaserver13ZigbeeAdapter21setHardwareRecognizedEb@Base 0.30.0
 _ZN11nymeaserver13ZigbeeAdapter7setNameERK7QString@Base 0.30.0
 _ZN11nymeaserver13ZigbeeAdapterC1Ev@Base 0.30.0
 _ZN11nymeaserver13ZigbeeAdapterC2Ev@Base 0.30.0
 _ZN11nymeaserver13ZigbeeHandler10AddNetworkERK4QMapI7QString8QVariantE@Base 0.30.0
 _ZN11nymeaserver13ZigbeeHandler10RemoveNodeERK4QMapI7QString8QVariantE@Base 0.30.0
 _ZN11nymeaserver13ZigbeeHandler11GetAdaptersERK4QMapI7QString8QVariantE@Base 0.30.0
 _ZN11nymeaserver13ZigbeeHandler11GetNetworksERK4QMapI7QString8QVariantE@Base 0.30.0
 _ZN11nymeaserver13ZigbeeHandler11NodeChangedERK4QMapI7QString8QVariantE@Base 0.30.0
 _ZN11nymeaserver13ZigbeeHandler11NodeRemovedERK4QMapI7QString8QVariantE@Base 0.30.0
 _ZN11nymeaserver13ZigbeeHandler11onNodeAddedERK5QUuidP10ZigbeeNode@Base 0.30.0
 _ZN11nymeaserver13ZigbeeHandler11packNetworkEP13ZigbeeNetwork@Base 0.30.0
 _ZN11nymeaserver13ZigbeeHandler11qt_metacallEN11QMetaObject4CallEiPPv@Base 0.30.0
 _ZN11nymeaserver13ZigbeeHandler11qt_metacastEPKc@Base 0.30.0
 _ZN11nymeaserver13ZigbeeHandler12AdapterAddedERK4QMapI7QString8QVariantE@Base 0.30.0
 _ZN11nymeaserver13ZigbeeHandler12NetworkAddedERK4QMapI7QString8QVariantE@Base 0.30.0
 _ZN11nymeaserver13ZigbeeHandler12onNodeJoinedERK5QUuidP10ZigbeeNode@Base 0.30.0
 _ZN11nymeaserver13ZigbeeHandler13RemoveNetworkERK4QMapI7QString8QVariantE@Base 0.30.0
 _ZN11nymeaserver13ZigbeeHandler13SetPermitJoinERK4QMapI7QString8QVariantE@Base 0.30.0
 _ZN11nymeaserver13ZigbeeHandler13onNodeChangedERK5QUuidP10ZigbeeNode@Base 0.30.0
 _ZN11nymeaserver13ZigbeeHandler13onNodeRemovedERK5QUuidP10ZigbeeNode@Base 0.30.0
 _ZN11nymeaserver13ZigbeeHandler14AdapterRemovedERK4QMapI7QString8QVariantE@Base 0.30.0
 _ZN11nymeaserver13ZigbeeHandler14NetworkChangedERK4QMapI7QString8QVariantE@Base 0.30.0
 _ZN11nymeaserver13ZigbeeHandler14NetworkRemovedERK4QMapI7QString8QVariantE@Base 0.30.0
 _ZN11nymeaserver13ZigbeeHandler16staticMetaObjectE@Base 0.30.0
 _ZN11nymeaserver13ZigbeeHandler19FactoryResetNetworkERK4QMapI7QString8QVariantE@Base 0.30.0
 _ZN11nymeaserver13ZigbeeHandler20GetAvailableBackendsERK4QMapI7QString8QVariantE@Base 0.30.0
 _ZN11nymeaserver13ZigbeeHandler8GetNodesERK4QMapI7QString8QVariantE@Base 0.30.0
 _ZN11nymeaserver13ZigbeeHandler8packNodeEP10ZigbeeNode@Base 0.30.0
 _ZN11nymeaserver13ZigbeeHandler9NodeAddedERK4QMapI7QString8QVariantE@Base 0.30.0
 _ZN11nymeaserver13ZigbeeHandlerC1EPNS_13ZigbeeManagerEP7QObject@Base 0.30.0
 _ZN11nymeaserver13ZigbeeHandlerC2EPNS_13ZigbeeManagerEP7QObject@Base 0.30.0
 _ZN11nymeaserver13ZigbeeManager10addNetworkEP13ZigbeeNetwork@Base 0.30.0
 _ZN11nymeaserver13ZigbeeManager10nodeJoinedERK5QUuidP10ZigbeeNode@Base 0.30.0
 _ZN11nymeaserver13ZigbeeManager11nodeChangedERK5QUuidP10ZigbeeNode@Base 0.30.0
 _ZN11nymeaserver13ZigbeeManager11nodeRemovedERK5QUuidP10ZigbeeNode@Base 0.30.0
 _ZN11nymeaserver13ZigbeeManager11qt_metacallEN11QMetaObject4CallEiPPv@Base 0.30.0
 _ZN11nymeaserver13ZigbeeManager11qt_metacastEPKc@Base 0.30.0
 _ZN11nymeaserver13ZigbeeManager11saveNetworkEP13ZigbeeNetwork@Base 0.30.0
 _ZN11nymeaserver13ZigbeeManager16availableChangedEb@Base 0.30.0
 _ZN11nymeaserver13ZigbeeManager16setupNodeSignalsEP10ZigbeeNode@Base 0.30.0
 _ZN11nymeaserver13ZigbeeManager16staticMetaObjectE@Base 0.30.0
 _ZN11nymeaserver13ZigbeeManager18buildNetworkObjectERK5QUuidNS_13ZigbeeAdapter17ZigbeeBackendTypeE@Base 0.30.0
 _ZN11nymeaserver13ZigbeeManager18loadZigbeeNetworksEv@Base 0.30.0
 _ZN11nymeaserver13ZigbeeManager18zigbeeNetworkAddedEP13ZigbeeNetwork@Base 0.30.0
 _ZN11nymeaserver13ZigbeeManager19createZigbeeNetworkERK7QStringjNS_13ZigbeeAdapter17ZigbeeBackendTypeE17ZigbeeChannelMask@Base 0.30.0
 _ZN11nymeaserver13ZigbeeManager19factoryResetNetworkERK5QUuid@Base 0.30.0
 _ZN11nymeaserver13ZigbeeManager19removeZigbeeNetworkERK5QUuid@Base 0.30.0
 _ZN11nymeaserver13ZigbeeManager20zigbeeNetworkChangedEP13ZigbeeNetwork@Base 0.30.0
 _ZN11nymeaserver13ZigbeeManager20zigbeeNetworkRemovedE5QUuid@Base 0.30.0
 _ZN11nymeaserver13ZigbeeManager21availableAdapterAddedERKNS_13ZigbeeAdapterE@Base 0.30.0
 _ZN11nymeaserver13ZigbeeManager21createPlatformNetworkERK7QStringjN6Zigbee17ZigbeeBackendTypeE17ZigbeeChannelMask@Base 0.30.0
 _ZN11nymeaserver13ZigbeeManager23availableAdapterRemovedERKNS_13ZigbeeAdapterE@Base 0.30.0
 _ZN11nymeaserver13ZigbeeManager23evaluateZigbeeAvailableEv@Base 0.30.0
 _ZN11nymeaserver13ZigbeeManager23networkExistsForAdapterERK17ZigbeeUartAdapter@Base 0.30.0
 _ZN11nymeaserver13ZigbeeManager26checkPlatformConfigurationEv@Base 0.30.0
 _ZN11nymeaserver13ZigbeeManager26setZigbeeNetworkPermitJoinERK5QUuidtj@Base 0.30.0
 _ZN11nymeaserver13ZigbeeManager27convertUartAdapterToAdapterERK17ZigbeeUartAdapter@Base 0.30.0
 _ZN11nymeaserver13ZigbeeManager9nodeAddedERK5QUuidP10ZigbeeNode@Base 0.30.0
 _ZN11nymeaserver13ZigbeeManagerC1EP7QObject@Base 0.30.0
 _ZN11nymeaserver13ZigbeeManagerC2EP7QObject@Base 0.30.0
 _ZN11nymeaserver14CloudTransport10stopServerEv@Base 0.30.0
 _ZN11nymeaserver14CloudTransport11qt_metacallEN11QMetaObject4CallEiPPv@Base 0.30.0
 _ZN11nymeaserver14CloudTransport11qt_metacastEPKc@Base 0.30.0
 _ZN11nymeaserver14CloudTransport11startServerEv@Base 0.30.0
 _ZN11nymeaserver14CloudTransport14connectToCloudERK7QStringS3_S3_@Base 0.30.0
 _ZN11nymeaserver14CloudTransport14transportReadyEv@Base 0.30.0
 _ZN11nymeaserver14CloudTransport16staticMetaObjectE@Base 0.30.0
 _ZN11nymeaserver14CloudTransport18transportConnectedEv@Base 0.30.0
 _ZN11nymeaserver14CloudTransport18transportDataReadyERK10QByteArray@Base 0.30.0
 _ZN11nymeaserver14CloudTransport21transportDisconnectedEv@Base 0.30.0
 _ZN11nymeaserver14CloudTransport25terminateClientConnectionERK5QUuid@Base 0.30.0
 _ZN11nymeaserver14CloudTransport28remoteConnectionStateChangedEN17remoteproxyclient21RemoteProxyConnection5StateE@Base 0.30.0
 _ZN11nymeaserver14CloudTransport8sendDataERK5QListI5QUuidERK10QByteArray@Base 0.30.0
 _ZN11nymeaserver14CloudTransport8sendDataERK5QUuidRK10QByteArray@Base 0.30.0
 _ZN11nymeaserver14CloudTransportC1ERKNS_19ServerConfigurationEP7QObject@Base 0.30.0
 _ZN11nymeaserver14CloudTransportC2ERKNS_19ServerConfigurationEP7QObject@Base 0.30.0
 _ZN11nymeaserver14LoggingHandler11qt_metacallEN11QMetaObject4CallEiPPv@Base 0.30.0
 _ZN11nymeaserver14LoggingHandler11qt_metacastEPKc@Base 0.30.0
 _ZN11nymeaserver14LoggingHandler12packLogEntryERKNS_8LogEntryE@Base 0.30.0
 _ZN11nymeaserver14LoggingHandler13LogEntryAddedERK4QMapI7QString8QVariantE@Base 0.30.0
 _ZN11nymeaserver14LoggingHandler13logEntryAddedERKNS_8LogEntryE@Base 0.30.0
 _ZN11nymeaserver14LoggingHandler15unpackLogFilterERK4QMapI7QString8QVariantE@Base 0.30.0
 _ZN11nymeaserver14LoggingHandler16staticMetaObjectE@Base 0.30.0
 _ZN11nymeaserver14LoggingHandler18LogDatabaseUpdatedERK4QMapI7QString8QVariantE@Base 0.30.0
 _ZN11nymeaserver14LoggingHandler18logDatabaseUpdatedEv@Base 0.30.0
 _ZN11nymeaserver14LoggingHandlerC1EP7QObject@Base 0.30.0
 _ZN11nymeaserver14LoggingHandlerC2EP7QObject@Base 0.30.0
 _ZN11nymeaserver14ScriptsHandler10EditScriptERK4QMapI7QString8QVariantE@Base 0.30.0
 _ZN11nymeaserver14ScriptsHandler10GetScriptsERK4QMapI7QString8QVariantE@Base 0.30.0
 _ZN11nymeaserver14ScriptsHandler11ScriptAddedERK4QMapI7QString8QVariantE@Base 0.30.0
 _ZN11nymeaserver14ScriptsHandler11qt_metacallEN11QMetaObject4CallEiPPv@Base 0.30.0
 _ZN11nymeaserver14ScriptsHandler11qt_metacastEPKc@Base 0.30.0
 _ZN11nymeaserver14ScriptsHandler12RemoveScriptERK4QMapI7QString8QVariantE@Base 0.30.0
 _ZN11nymeaserver14ScriptsHandler13ScriptChangedERK4QMapI7QString8QVariantE@Base 0.30.0
 _ZN11nymeaserver14ScriptsHandler13ScriptRemovedERK4QMapI7QString8QVariantE@Base 0.30.0
 _ZN11nymeaserver14ScriptsHandler16GetScriptContentERK4QMapI7QString8QVariantE@Base 0.30.0
 _ZN11nymeaserver14ScriptsHandler16ScriptLogMessageERK4QMapI7QString8QVariantE@Base 0.30.0
 _ZN11nymeaserver14ScriptsHandler16staticMetaObjectE@Base 0.30.0
 _ZN11nymeaserver14ScriptsHandler20ScriptContentChangedERK4QMapI7QString8QVariantE@Base 0.30.0
 _ZN11nymeaserver14ScriptsHandler9AddScriptERK4QMapI7QString8QVariantE@Base 0.30.0
 _ZN11nymeaserver14ScriptsHandlerC1EPNS_12ScriptEngineEP7QObject@Base 0.30.0
 _ZN11nymeaserver14ScriptsHandlerC2EPNS_12ScriptEngineEP7QObject@Base 0.30.0
 _ZN11nymeaserver14StateEvaluator11removeThingERK7ThingId@Base 0.30.0
 _ZN11nymeaserver14StateEvaluator15appendEvaluatorERKS0_@Base 0.30.0
 _ZN11nymeaserver14StateEvaluator15setOperatorTypeEN5Types13StateOperatorE@Base 0.30.0
 _ZN11nymeaserver14StateEvaluator16loadFromSettingsER13NymeaSettingsRK7QString@Base 0.30.0
 _ZN11nymeaserver14StateEvaluator16staticMetaObjectE@Base 0.30.0
 _ZN11nymeaserver14StateEvaluator18setChildEvaluatorsERKNS_15StateEvaluatorsE@Base 0.30.0
 _ZN11nymeaserver14StateEvaluator18setStateDescriptorERK15StateDescriptor@Base 0.30.0
 _ZN11nymeaserver14StateEvaluatorC1E5QListIS0_EN5Types13StateOperatorE@Base 0.30.0
 _ZN11nymeaserver14StateEvaluatorC1ERK15StateDescriptor@Base 0.30.0
 _ZN11nymeaserver14StateEvaluatorC2E5QListIS0_EN5Types13StateOperatorE@Base 0.30.0
 _ZN11nymeaserver14StateEvaluatorC2ERK15StateDescriptor@Base 0.30.0
 _ZN11nymeaserver14ThingsFetchJob11qt_metacallEN11QMetaObject4CallEiPPv@Base 0.30.0
 _ZN11nymeaserver14ThingsFetchJob11qt_metacastEPKc@Base 0.30.0
 _ZN11nymeaserver14ThingsFetchJob16staticMetaObjectE@Base 0.30.0
 _ZN11nymeaserver14ThingsFetchJob8finishedEv@Base 0.30.0
 _ZN11nymeaserver14ZigbeeAdapters13hasSerialPortERK7QString@Base 0.30.0
 _ZN11nymeaserver14ZigbeeAdapters16staticMetaObjectE@Base 0.30.0
 _ZN11nymeaserver14ZigbeeAdapters3putERK8QVariant@Base 0.30.0
 _ZN11nymeaserver14ZigbeeAdaptersC1ERK5QListINS_13ZigbeeAdapterEE@Base 0.30.0
 _ZN11nymeaserver14ZigbeeAdaptersC1Ev@Base 0.30.0
 _ZN11nymeaserver14ZigbeeAdaptersC2ERK5QListINS_13ZigbeeAdapterEE@Base 0.30.0
 _ZN11nymeaserver14ZigbeeAdaptersC2Ev@Base 0.30.0
 _ZN11nymeaserver15BluetoothServer10stopServerEv@Base 0.30.0
 _ZN11nymeaserver15BluetoothServer11qt_metacallEN11QMetaObject4CallEiPPv@Base 0.30.0
 _ZN11nymeaserver15BluetoothServer11qt_metacastEPKc@Base 0.30.0
 _ZN11nymeaserver15BluetoothServer11startServerEv@Base 0.30.0
 _ZN11nymeaserver15BluetoothServer13onClientErrorEN16QBluetoothSocket11SocketErrorE@Base 0.30.0
 _ZN11nymeaserver15BluetoothServer16staticMetaObjectE@Base 0.30.0
 _ZN11nymeaserver15BluetoothServer17hardwareAvailableEv@Base 0.30.0
 _ZN11nymeaserver15BluetoothServer17onClientConnectedEv@Base 0.30.0
 _ZN11nymeaserver15BluetoothServer17onHostModeChangedERKN21QBluetoothLocalDevice8HostModeE@Base 0.30.0
 _ZN11nymeaserver15BluetoothServer20onClientDisconnectedEv@Base 0.30.0
 _ZN11nymeaserver15BluetoothServer20onClientStateChangedEN16QBluetoothSocket11SocketStateE@Base 0.30.0
 _ZN11nymeaserver15BluetoothServer25terminateClientConnectionERK5QUuid@Base 0.30.0
 _ZN11nymeaserver15BluetoothServer8readDataEv@Base 0.30.0
 _ZN11nymeaserver15BluetoothServer8sendDataERK5QListI5QUuidERK10QByteArray@Base 0.30.0
 _ZN11nymeaserver15BluetoothServer8sendDataERK5QUuidRK10QByteArray@Base 0.30.0
 _ZN11nymeaserver15BluetoothServerC1EP7QObject@Base 0.30.0
 _ZN11nymeaserver15BluetoothServerC2EP7QObject@Base 0.30.0
 _ZN11nymeaserver15BluetoothServerD0Ev@Base 0.30.0
 _ZN11nymeaserver15BluetoothServerD1Ev@Base 0.30.0
 _ZN11nymeaserver15BluetoothServerD2Ev@Base 0.30.0
 _ZN11nymeaserver15StateEvaluators16staticMetaObjectE@Base 0.30.0
 _ZN11nymeaserver15StateEvaluators3putERK8QVariant@Base 0.30.0
 _ZN11nymeaserver15StateEvaluatorsC1ERK5QListINS_14StateEvaluatorEE@Base 0.30.0
 _ZN11nymeaserver15StateEvaluatorsC1Ev@Base 0.30.0
 _ZN11nymeaserver15StateEvaluatorsC2ERK5QListINS_14StateEvaluatorEE@Base 0.30.0
 _ZN11nymeaserver15StateEvaluatorsC2Ev@Base 0.30.0
 _ZN11nymeaserver15WebServerClient11connectionsEv@Base 0.30.0
 _ZN11nymeaserver15WebServerClient11qt_metacallEN11QMetaObject4CallEiPPv@Base 0.30.0
 _ZN11nymeaserver15WebServerClient11qt_metacastEPKc@Base 0.30.0
 _ZN11nymeaserver15WebServerClient11resetTimoutEP10QSslSocket@Base 0.30.0
 _ZN11nymeaserver15WebServerClient13addConnectionEP10QSslSocket@Base 0.30.0
 _ZN11nymeaserver15WebServerClient16removeConnectionEP10QSslSocket@Base 0.30.0
 _ZN11nymeaserver15WebServerClient16staticMetaObjectE@Base 0.30.0
 _ZN11nymeaserver15WebServerClient8onTimoutEv@Base 0.30.0
 _ZN11nymeaserver15WebServerClientC1ERK12QHostAddressP7QObject@Base 0.30.0
 _ZN11nymeaserver15WebServerClientC2ERK12QHostAddressP7QObject@Base 0.30.0
 _ZN11nymeaserver15WebSocketServer10stopServerEv@Base 0.30.0
 _ZN11nymeaserver15WebSocketServer11qt_metacallEN11QMetaObject4CallEiPPv@Base 0.30.0
 _ZN11nymeaserver15WebSocketServer11qt_metacastEPKc@Base 0.30.0
 _ZN11nymeaserver15WebSocketServer11startServerEv@Base 0.30.0
 _ZN11nymeaserver15WebSocketServer13onClientErrorEN15QAbstractSocket11SocketErrorE@Base 0.30.0
 _ZN11nymeaserver15WebSocketServer13onServerErrorEN15QAbstractSocket11SocketErrorE@Base 0.30.0
 _ZN11nymeaserver15WebSocketServer13setServerNameERK7QString@Base 0.30.0
 _ZN11nymeaserver15WebSocketServer16staticMetaObjectE@Base 0.30.0
 _ZN11nymeaserver15WebSocketServer17onClientConnectedEv@Base 0.30.0
 _ZN11nymeaserver15WebSocketServer20onClientDisconnectedEv@Base 0.30.0
 _ZN11nymeaserver15WebSocketServer21onTextMessageReceivedERK7QString@Base 0.30.0
 _ZN11nymeaserver15WebSocketServer23onBinaryMessageReceivedERK10QByteArray@Base 0.30.0
 _ZN11nymeaserver15WebSocketServer25terminateClientConnectionERK5QUuid@Base 0.30.0
 _ZN11nymeaserver15WebSocketServer6onPingEyRK10QByteArray@Base 0.30.0
 _ZN11nymeaserver15WebSocketServer8sendDataERK5QListI5QUuidERK10QByteArray@Base 0.30.0
 _ZN11nymeaserver15WebSocketServer8sendDataERK5QUuidRK10QByteArray@Base 0.30.0
 _ZN11nymeaserver15WebSocketServerC1ERKNS_19ServerConfigurationERK17QSslConfigurationP7QObject@Base 0.30.0
 _ZN11nymeaserver15WebSocketServerC2ERKNS_19ServerConfigurationERK17QSslConfigurationP7QObject@Base 0.30.0
 _ZN11nymeaserver15WebSocketServerD0Ev@Base 0.30.0
 _ZN11nymeaserver15WebSocketServerD1Ev@Base 0.30.0
 _ZN11nymeaserver15WebSocketServerD2Ev@Base 0.30.0
 _ZN11nymeaserver16DeviceDescriptor16staticMetaObjectE@Base 0.30.0
 _ZN11nymeaserver16ModbusRtuHandler11qt_metacallEN11QMetaObject4CallEiPPv@Base 0.30.0
 _ZN11nymeaserver16ModbusRtuHandler11qt_metacastEPKc@Base 0.30.0
 _ZN11nymeaserver16ModbusRtuHandler14GetSerialPortsERK4QMapI7QString8QVariantE@Base 0.30.0
 _ZN11nymeaserver16ModbusRtuHandler15SerialPortAddedERK4QMapI7QString8QVariantE@Base 0.30.0
 _ZN11nymeaserver16ModbusRtuHandler16staticMetaObjectE@Base 0.30.0
 _ZN11nymeaserver16ModbusRtuHandler17SerialPortRemovedERK4QMapI7QString8QVariantE@Base 0.30.0
 _ZN11nymeaserver16ModbusRtuHandler18AddModbusRtuMasterERK4QMapI7QString8QVariantE@Base 0.30.0
 _ZN11nymeaserver16ModbusRtuHandler19GetModbusRtuMastersERK4QMapI7QString8QVariantE@Base 0.30.0
 _ZN11nymeaserver16ModbusRtuHandler19packModbusRtuMasterEP15ModbusRtuMaster@Base 0.30.0
 _ZN11nymeaserver16ModbusRtuHandler20ModbusRtuMasterAddedERK4QMapI7QString8QVariantE@Base 0.30.0
 _ZN11nymeaserver16ModbusRtuHandler21RemoveModbusRtuMasterERK4QMapI7QString8QVariantE@Base 0.30.0
 _ZN11nymeaserver16ModbusRtuHandler22ModbusRtuMasterChangedERK4QMapI7QString8QVariantE@Base 0.30.0
 _ZN11nymeaserver16ModbusRtuHandler22ModbusRtuMasterRemovedERK4QMapI7QString8QVariantE@Base 0.30.0
 _ZN11nymeaserver16ModbusRtuHandler26ReconfigureModbusRtuMasterERK4QMapI7QString8QVariantE@Base 0.30.0
 _ZN11nymeaserver16ModbusRtuHandlerC1EPNS_16ModbusRtuManagerEP7QObject@Base 0.30.0
 _ZN11nymeaserver16ModbusRtuHandlerC2EPNS_16ModbusRtuManagerEP7QObject@Base 0.30.0
 _ZN11nymeaserver16ModbusRtuManager11qt_metacallEN11QMetaObject4CallEiPPv@Base 0.30.0
 _ZN11nymeaserver16ModbusRtuManager11qt_metacastEPKc@Base 0.30.0
 _ZN11nymeaserver16ModbusRtuManager14loadRtuMastersEv@Base 0.30.0
 _ZN11nymeaserver16ModbusRtuManager16staticMetaObjectE@Base 0.30.0
 _ZN11nymeaserver16ModbusRtuManager18getModbusRtuMasterERK5QUuid@Base 0.30.0
 _ZN11nymeaserver16ModbusRtuManager19saveModbusRtuMasterEP15ModbusRtuMaster@Base 0.30.0
 _ZN11nymeaserver16ModbusRtuManager20modbusRtuMasterAddedEP15ModbusRtuMaster@Base 0.30.0
 _ZN11nymeaserver16ModbusRtuManager21addNewModbusRtuMasterERK7QStringiN11QSerialPort6ParityENS4_8DataBitsENS4_8StopBitsEii@Base 0.30.0
 _ZN11nymeaserver16ModbusRtuManager21removeModbusRtuMasterERK5QUuid@Base 0.30.0
 _ZN11nymeaserver16ModbusRtuManager22modbusRtuMasterChangedEP15ModbusRtuMaster@Base 0.30.0
 _ZN11nymeaserver16ModbusRtuManager22modbusRtuMasterRemovedEP15ModbusRtuMaster@Base 0.30.0
 _ZN11nymeaserver16ModbusRtuManager26reconfigureModbusRtuMasterERK5QUuidRK7QStringiN11QSerialPort6ParityENS7_8DataBitsENS7_8StopBitsEii@Base 0.30.0
 _ZN11nymeaserver16ModbusRtuManager28addModbusRtuMasterInternallyEPNS_19ModbusRtuMasterImplE@Base 0.30.0
 _ZN11nymeaserver16ModbusRtuManagerC1EPNS_17SerialPortMonitorEP7QObject@Base 0.30.0
 _ZN11nymeaserver16ModbusRtuManagerC2EPNS_17SerialPortMonitorEP7QObject@Base 0.30.0
 _ZN11nymeaserver17DeviceDescriptors16staticMetaObjectE@Base 0.30.0
 _ZN11nymeaserver17ExperienceManager11loadPluginsEv@Base 0.30.0
 _ZN11nymeaserver17ExperienceManager11qt_metacallEN11QMetaObject4CallEiPPv@Base 0.30.0
 _ZN11nymeaserver17ExperienceManager11qt_metacastEPKc@Base 0.30.0
 _ZN11nymeaserver17ExperienceManager16staticMetaObjectE@Base 0.30.0
 _ZN11nymeaserver17ExperienceManager20loadExperiencePluginERK7QString@Base 0.30.0
 _ZN11nymeaserver17ExperienceManagerC1EP12ThingManagerP13JsonRPCServerP7QObject@Base 0.30.0
 _ZN11nymeaserver17ExperienceManagerC2EP12ThingManagerP13JsonRPCServerP7QObject@Base 0.30.0
 _ZN11nymeaserver17SerialPortMonitor11qt_metacallEN11QMetaObject4CallEiPPv@Base 0.30.0
 _ZN11nymeaserver17SerialPortMonitor11qt_metacastEPKc@Base 0.30.0
 _ZN11nymeaserver17SerialPortMonitor15serialPortAddedERKNS_10SerialPortE@Base 0.30.0
 _ZN11nymeaserver17SerialPortMonitor16staticMetaObjectE@Base 0.30.0
 _ZN11nymeaserver17SerialPortMonitor17serialPortRemovedERKNS_10SerialPortE@Base 0.30.0
 _ZN11nymeaserver17SerialPortMonitor23addSerialPortInternallyERKNS_10SerialPortE@Base 0.30.0
 _ZN11nymeaserver17SerialPortMonitorC1EP7QObject@Base 0.30.0
 _ZN11nymeaserver17SerialPortMonitorC2EP7QObject@Base 0.30.0
 _ZN11nymeaserver18DebugServerHandler11qt_metacallEN11QMetaObject4CallEiPPv@Base 0.30.0
 _ZN11nymeaserver18DebugServerHandler11qt_metacastEPKc@Base 0.30.0
 _ZN11nymeaserver18DebugServerHandler14s_loggingMutexE@Base 0.30.0
 _ZN11nymeaserver18DebugServerHandler16loadResourceDataERK7QString@Base 0.30.0
 _ZN11nymeaserver18DebugServerHandler16staticMetaObjectE@Base 0.30.0
 _ZN11nymeaserver18DebugServerHandler17logMessageHandlerE9QtMsgTypeRK18QMessageLogContextRK7QString@Base 0.30.0
 _ZN11nymeaserver18DebugServerHandler17resourceFileExitsERK7QString@Base 0.30.0
 _ZN11nymeaserver18DebugServerHandler18s_websocketClientsE@Base 0.30.0
 _ZN11nymeaserver18DebugServerHandler19getResourceFileNameERK7QString@Base 0.30.0
 _ZN11nymeaserver18DebugServerHandler19processDebugRequestERK7QStringRK9QUrlQuery@Base 0.30.0
 _ZN11nymeaserver18DebugServerHandler20onDigProcessFinishedEiN8QProcess10ExitStatusE@Base 0.30.0
 _ZN11nymeaserver18DebugServerHandler21onPingProcessFinishedEiN8QProcess10ExitStatusE@Base 0.30.0
 _ZN11nymeaserver18DebugServerHandler22createDebugXmlDocumentEv@Base 0.30.0
 _ZN11nymeaserver18DebugServerHandler22createErrorXmlDocumentENS_9HttpReply14HttpStatusCodeERK7QString@Base 0.30.0
 _ZN11nymeaserver18DebugServerHandler22onWebsocketClientErrorEN15QAbstractSocket11SocketErrorE@Base 0.30.0
 _ZN11nymeaserver18DebugServerHandler23processDebugFileRequestERK7QString@Base 0.30.0
 _ZN11nymeaserver18DebugServerHandler26onTracePathProcessFinishedEiN8QProcess10ExitStatusE@Base 0.30.0
 _ZN11nymeaserver18DebugServerHandler26onWebsocketClientConnectedEv@Base 0.30.0
 _ZN11nymeaserver18DebugServerHandler27onDebugServerEnabledChangedEb@Base 0.30.0
 _ZN11nymeaserver18DebugServerHandler29onDebugReportGeneratorTimeoutEv@Base 0.30.0
 _ZN11nymeaserver18DebugServerHandler29onWebsocketClientDisconnectedEv@Base 0.30.0
 _ZN11nymeaserver18DebugServerHandler30onDebugReportGeneratorFinishedEb@Base 0.30.0
 _ZN11nymeaserver18DebugServerHandlerC1EP7QObject@Base 0.30.0
 _ZN11nymeaserver18DebugServerHandlerC2EP7QObject@Base 0.30.0
 _ZN11nymeaserver18LogEntriesFetchJob11qt_metacallEN11QMetaObject4CallEiPPv@Base 0.30.0
 _ZN11nymeaserver18LogEntriesFetchJob11qt_metacastEPKc@Base 0.30.0
 _ZN11nymeaserver18LogEntriesFetchJob16staticMetaObjectE@Base 0.30.0
 _ZN11nymeaserver18LogEntriesFetchJob8finishedEv@Base 0.30.0
 _ZN11nymeaserver18ModbusRtuReplyImpl11qt_metacallEN11QMetaObject4CallEiPPv@Base 0.30.0
 _ZN11nymeaserver18ModbusRtuReplyImpl11qt_metacastEPKc@Base 0.30.0
 _ZN11nymeaserver18ModbusRtuReplyImpl11setFinishedEb@Base 0.30.0
 _ZN11nymeaserver18ModbusRtuReplyImpl14setErrorStringERK7QString@Base 0.30.0
 _ZN11nymeaserver18ModbusRtuReplyImpl16staticMetaObjectE@Base 0.30.0
 _ZN11nymeaserver18ModbusRtuReplyImpl8setErrorEN14ModbusRtuReply5ErrorE@Base 0.30.0
 _ZN11nymeaserver18ModbusRtuReplyImpl9setResultERK7QVectorItE@Base 0.30.0
 _ZN11nymeaserver18ModbusRtuReplyImplC1EiiP7QObject@Base 0.30.0
 _ZN11nymeaserver18ModbusRtuReplyImplC2EiiP7QObject@Base 0.30.0
 _ZN11nymeaserver18NymeaConfiguration11qt_metacallEN11QMetaObject4CallEiPPv@Base 0.30.0
 _ZN11nymeaserver18NymeaConfiguration11qt_metacastEPKc@Base 0.30.0
 _ZN11nymeaserver18NymeaConfiguration11setTimeZoneERK10QByteArray@Base 0.30.0
 _ZN11nymeaserver18NymeaConfiguration13localeChangedEv@Base 0.30.0
 _ZN11nymeaserver18NymeaConfiguration13setServerNameERK7QString@Base 0.30.0
 _ZN11nymeaserver18NymeaConfiguration13setServerUuidERK5QUuid@Base 0.30.0
 _ZN11nymeaserver18NymeaConfiguration15mqttPortChangedEv@Base 0.30.0
 _ZN11nymeaserver18NymeaConfiguration15setCloudEnabledEb@Base 0.30.0
 _ZN11nymeaserver18NymeaConfiguration15storeMqttPolicyERKNS_10MqttPolicyE@Base 0.30.0
 _ZN11nymeaserver18NymeaConfiguration15timeZoneChangedEv@Base 0.30.0
 _ZN11nymeaserver18NymeaConfiguration16deleteMqttPolicyERK7QString@Base 0.30.0
 _ZN11nymeaserver18NymeaConfiguration16readServerConfigERK7QStringS3_@Base 0.30.0
 _ZN11nymeaserver18NymeaConfiguration16removeMqttPolicyERK7QString@Base 0.30.0
 _ZN11nymeaserver18NymeaConfiguration16staticMetaObjectE@Base 0.30.0
 _ZN11nymeaserver18NymeaConfiguration16updateMqttPolicyERKNS_10MqttPolicyE@Base 0.30.0
 _ZN11nymeaserver18NymeaConfiguration17mqttPolicyChangedERK7QString@Base 0.30.0
 _ZN11nymeaserver18NymeaConfiguration17mqttPolicyRemovedERK7QString@Base 0.30.0
 _ZN11nymeaserver18NymeaConfiguration17serverNameChangedERK7QString@Base 0.30.0
 _ZN11nymeaserver18NymeaConfiguration17setCloudServerUrlERK7QString@Base 0.30.0
 _ZN11nymeaserver18NymeaConfiguration17setSslCertificateERK7QStringS3_@Base 0.30.0
 _ZN11nymeaserver18NymeaConfiguration17storeServerConfigERK7QStringRKNS_19ServerConfigurationE@Base 0.30.0
 _ZN11nymeaserver18NymeaConfiguration18deleteServerConfigERK7QStringS3_@Base 0.30.0
 _ZN11nymeaserver18NymeaConfiguration19cloudEnabledChangedEb@Base 0.30.0
 _ZN11nymeaserver18NymeaConfiguration19readWebServerConfigERK7QString@Base 0.30.0
 _ZN11nymeaserver18NymeaConfiguration19setCloudCertificateERK7QString@Base 0.30.0
 _ZN11nymeaserver18NymeaConfiguration20storeWebServerConfigERKNS_22WebServerConfigurationE@Base 0.30.0
 _ZN11nymeaserver18NymeaConfiguration21setCloudCertificateCAERK7QString@Base 0.30.0
 _ZN11nymeaserver18NymeaConfiguration21setDebugServerEnabledEb@Base 0.30.0
 _ZN11nymeaserver18NymeaConfiguration22setCloudCertificateKeyERK7QString@Base 0.30.0
 _ZN11nymeaserver18NymeaConfiguration24mqttBrokerEnabledChangedEv@Base 0.30.0
 _ZN11nymeaserver18NymeaConfiguration25debugServerEnabledChangedEb@Base 0.30.0
 _ZN11nymeaserver18NymeaConfiguration25setBluetoothServerEnabledEb@Base 0.30.0
 _ZN11nymeaserver18NymeaConfiguration25setTcpServerConfigurationERKNS_19ServerConfigurationE@Base 0.30.0
 _ZN11nymeaserver18NymeaConfiguration25setWebServerConfigurationERKNS_22WebServerConfigurationE@Base 0.30.0
 _ZN11nymeaserver18NymeaConfiguration26setMqttServerConfigurationERKNS_19ServerConfigurationE@Base 0.30.0
 _ZN11nymeaserver18NymeaConfiguration28removeTcpServerConfigurationERK7QString@Base 0.30.0
 _ZN11nymeaserver18NymeaConfiguration28removeWebServerConfigurationERK7QString@Base 0.30.0
 _ZN11nymeaserver18NymeaConfiguration29bluetoothServerEnabledChangedEv@Base 0.30.0
 _ZN11nymeaserver18NymeaConfiguration29removeMqttServerConfigurationERK7QString@Base 0.30.0
 _ZN11nymeaserver18NymeaConfiguration29tcpServerConfigurationChangedERK7QString@Base 0.30.0
 _ZN11nymeaserver18NymeaConfiguration29tcpServerConfigurationRemovedERK7QString@Base 0.30.0
 _ZN11nymeaserver18NymeaConfiguration29webServerConfigurationChangedERK7QString@Base 0.30.0
 _ZN11nymeaserver18NymeaConfiguration29webServerConfigurationRemovedERK7QString@Base 0.30.0
 _ZN11nymeaserver18NymeaConfiguration30mqttServerConfigurationChangedERK7QString@Base 0.30.0
 _ZN11nymeaserver18NymeaConfiguration30mqttServerConfigurationRemovedERK7QString@Base 0.30.0
 _ZN11nymeaserver18NymeaConfiguration31setWebSocketServerConfigurationERKNS_19ServerConfigurationE@Base 0.30.0
 _ZN11nymeaserver18NymeaConfiguration34removeWebSocketServerConfigurationERK7QString@Base 0.30.0
 _ZN11nymeaserver18NymeaConfiguration35webSocketServerConfigurationChangedERK7QString@Base 0.30.0
 _ZN11nymeaserver18NymeaConfiguration35webSocketServerConfigurationRemovedERK7QString@Base 0.30.0
 _ZN11nymeaserver18NymeaConfiguration9setLocaleERK7QLocale@Base 0.30.0
 _ZN11nymeaserver18NymeaConfigurationC1EP7QObject@Base 0.30.0
 _ZN11nymeaserver18NymeaConfigurationC2EP7QObject@Base 0.30.0
 _ZN11nymeaserver18Radio433Trasmitter11qt_metacallEN11QMetaObject4CallEiPPv@Base 0.30.0
 _ZN11nymeaserver18Radio433Trasmitter11qt_metacastEPKc@Base 0.30.0
 _ZN11nymeaserver18Radio433Trasmitter12allowSendingEb@Base 0.30.0
 _ZN11nymeaserver18Radio433Trasmitter16startTransmitterEv@Base 0.30.0
 _ZN11nymeaserver18Radio433Trasmitter16staticMetaObjectE@Base 0.30.0
 _ZN11nymeaserver18Radio433Trasmitter3runEv@Base 0.30.0
 _ZN11nymeaserver18Radio433Trasmitter8sendDataEi5QListIiEi@Base 0.30.0
 _ZN11nymeaserver18Radio433Trasmitter9availableEv@Base 0.30.0
 _ZN11nymeaserver18Radio433Trasmitter9setUpGpioEv@Base 0.30.0
 _ZN11nymeaserver18Radio433TrasmitterC1EP7QObjecti@Base 0.30.0
 _ZN11nymeaserver18Radio433TrasmitterC2EP7QObjecti@Base 0.30.0
 _ZN11nymeaserver18Radio433TrasmitterD0Ev@Base 0.30.0
 _ZN11nymeaserver18Radio433TrasmitterD1Ev@Base 0.30.0
 _ZN11nymeaserver18Radio433TrasmitterD2Ev@Base 0.30.0
 _ZN11nymeaserver18TransportInterface11qt_metacallEN11QMetaObject4CallEiPPv@Base 0.30.0
 _ZN11nymeaserver18TransportInterface11qt_metacastEPKc@Base 0.30.0
 _ZN11nymeaserver18TransportInterface13dataAvailableERK5QUuidRK10QByteArray@Base 0.30.0
 _ZN11nymeaserver18TransportInterface13setServerNameERK7QString@Base 0.30.0
 _ZN11nymeaserver18TransportInterface15clientConnectedERK5QUuid@Base 0.30.0
 _ZN11nymeaserver18TransportInterface16setConfigurationERKNS_19ServerConfigurationE@Base 0.30.0
 _ZN11nymeaserver18TransportInterface16staticMetaObjectE@Base 0.30.0
 _ZN11nymeaserver18TransportInterface18clientDisconnectedERK5QUuid@Base 0.30.0
 _ZN11nymeaserver18TransportInterfaceC1ERKNS_19ServerConfigurationEP7QObject@Base 0.30.0
 _ZN11nymeaserver18TransportInterfaceC2ERKNS_19ServerConfigurationEP7QObject@Base 0.30.0
 _ZN11nymeaserver18TransportInterfaceD0Ev@Base 0.30.0
 _ZN11nymeaserver18TransportInterfaceD1Ev@Base 0.30.0
 _ZN11nymeaserver18TransportInterfaceD2Ev@Base 0.30.0
 _ZN11nymeaserver19IntegrationsHandler10ThingAddedERK4QMapI7QString8QVariantE@Base 0.30.0
 _ZN11nymeaserver19IntegrationsHandler11RemoveThingERK4QMapI7QString8QVariantE@Base 0.30.0
 _ZN11nymeaserver19IntegrationsHandler11qt_metacallEN11QMetaObject4CallEiPPv@Base 0.30.0
 _ZN11nymeaserver19IntegrationsHandler11qt_metacastEPKc@Base 0.30.0
 _ZN11nymeaserver19IntegrationsHandler12DisconnectIOERK4QMapI7QString8QVariantE@Base 0.30.0
 _ZN11nymeaserver19IntegrationsHandler12StateChangedERK4QMapI7QString8QVariantE@Base 0.30.0
 _ZN11nymeaserver19IntegrationsHandler12ThingChangedERK4QMapI7QString8QVariantE@Base 0.30.0
 _ZN11nymeaserver19IntegrationsHandler12ThingRemovedERK4QMapI7QString8QVariantE@Base 0.30.0
 _ZN11nymeaserver19IntegrationsHandler13ExecuteActionERK4QMapI7QString8QVariantERK11JsonContext@Base 0.30.0
 _ZN11nymeaserver19IntegrationsHandler14ConfirmPairingERK4QMapI7QString8QVariantE@Base 0.30.0
 _ZN11nymeaserver19IntegrationsHandler14EventTriggeredERK4QMapI7QString8QVariantE@Base 0.30.0
 _ZN11nymeaserver19IntegrationsHandler14SetStateFilterERK4QMapI7QString8QVariantE@Base 0.30.0
 _ZN11nymeaserver19IntegrationsHandler15SetEventLoggingERK4QMapI7QString8QVariantE@Base 0.30.0
 _ZN11nymeaserver19IntegrationsHandler15packBrowserItemERK11BrowserItem@Base 0.30.0
 _ZN11nymeaserver19IntegrationsHandler16GetIOConnectionsERK4QMapI7QString8QVariantE@Base 0.30.0
 _ZN11nymeaserver19IntegrationsHandler16ReconfigureThingERK4QMapI7QString8QVariantERK11JsonContext@Base 0.30.0
 _ZN11nymeaserver19IntegrationsHandler16SetThingSettingsERK4QMapI7QString8QVariantE@Base 0.30.0
 _ZN11nymeaserver19IntegrationsHandler16staticMetaObjectE@Base 0.30.0
 _ZN11nymeaserver19IntegrationsHandler17IOConnectionAddedERK4QMapI7QString8QVariantE@Base 0.30.0
 _ZN11nymeaserver19IntegrationsHandler17thingStateChangedEP5ThingRK5QUuidRK8QVariantS8_S8_@Base 0.30.0
 _ZN11nymeaserver19IntegrationsHandler18ExecuteBrowserItemERK4QMapI7QString8QVariantERK11JsonContext@Base 0.30.0
 _ZN11nymeaserver19IntegrationsHandler19IOConnectionRemovedERK4QMapI7QString8QVariantE@Base 0.30.0
 _ZN11nymeaserver19IntegrationsHandler19ThingSettingChangedERK4QMapI7QString8QVariantE@Base 0.30.0
 _ZN11nymeaserver19IntegrationsHandler19pluginConfigChangedERK8PluginIdRK9ParamList@Base 0.30.0
 _ZN11nymeaserver19IntegrationsHandler22SetPluginConfigurationERK4QMapI7QString8QVariantE@Base 0.30.0
 _ZN11nymeaserver19IntegrationsHandler22thingAddedNotificationEP5Thing@Base 0.30.0
 _ZN11nymeaserver19IntegrationsHandler24ExecuteBrowserItemActionERK4QMapI7QString8QVariantERK11JsonContext@Base 0.30.0
 _ZN11nymeaserver19IntegrationsHandler24thingChangedNotificationEP5Thing@Base 0.30.0
 _ZN11nymeaserver19IntegrationsHandler24thingRemovedNotificationERK7ThingId@Base 0.30.0
 _ZN11nymeaserver19IntegrationsHandler26PluginConfigurationChangedERK4QMapI7QString8QVariantE@Base 0.30.0
 _ZN11nymeaserver19IntegrationsHandler31thingSettingChangedNotificationERK7ThingIdRK11ParamTypeIdRK8QVariant@Base 0.30.0
 _ZN11nymeaserver19IntegrationsHandler8AddThingERK4QMapI7QString8QVariantERK11JsonContext@Base 0.30.0
 _ZN11nymeaserver19IntegrationsHandler9ConnectIOERK4QMapI7QString8QVariantE@Base 0.30.0
 _ZN11nymeaserver19IntegrationsHandler9EditThingERK4QMapI7QString8QVariantE@Base 0.30.0
 _ZN11nymeaserver19IntegrationsHandler9PairThingERK4QMapI7QString8QVariantERK11JsonContext@Base 0.30.0
 _ZN11nymeaserver19IntegrationsHandlerC1EP12ThingManagerP7QObject@Base 0.30.0
 _ZN11nymeaserver19IntegrationsHandlerC2EP12ThingManagerP7QObject@Base 0.30.0
 _ZN11nymeaserver19ModbusRtuMasterImpl10setTimeoutEi@Base 0.30.0
 _ZN11nymeaserver19ModbusRtuMasterImpl10writeCoilsEiiRK7QVectorItE@Base 0.30.0
 _ZN11nymeaserver19ModbusRtuMasterImpl11qt_metacallEN11QMetaObject4CallEiPPv@Base 0.30.0
 _ZN11nymeaserver19ModbusRtuMasterImpl11qt_metacastEPKc@Base 0.30.0
 _ZN11nymeaserver19ModbusRtuMasterImpl11setBaudrateEi@Base 0.30.0
 _ZN11nymeaserver19ModbusRtuMasterImpl11setDataBitsEN11QSerialPort8DataBitsE@Base 0.30.0
 _ZN11nymeaserver19ModbusRtuMasterImpl11setStopBitsEN11QSerialPort8StopBitsE@Base 0.30.0
 _ZN11nymeaserver19ModbusRtuMasterImpl13connectDeviceEv@Base 0.30.0
 _ZN11nymeaserver19ModbusRtuMasterImpl13setSerialPortERK7QString@Base 0.30.0
 _ZN11nymeaserver19ModbusRtuMasterImpl16disconnectDeviceEv@Base 0.30.0
 _ZN11nymeaserver19ModbusRtuMasterImpl16staticMetaObjectE@Base 0.30.0
 _ZN11nymeaserver19ModbusRtuMasterImpl17readDiscreteInputEiit@Base 0.30.0
 _ZN11nymeaserver19ModbusRtuMasterImpl17readInputRegisterEiit@Base 0.30.0
 _ZN11nymeaserver19ModbusRtuMasterImpl18setNumberOfRetriesEi@Base 0.30.0
 _ZN11nymeaserver19ModbusRtuMasterImpl19readHoldingRegisterEiit@Base 0.30.0
 _ZN11nymeaserver19ModbusRtuMasterImpl21writeHoldingRegistersEiiRK7QVectorItE@Base 0.30.0
 _ZN11nymeaserver19ModbusRtuMasterImpl8readCoilEiit@Base 0.30.0
 _ZN11nymeaserver19ModbusRtuMasterImpl8stopBitsEv@Base 0.30.0
 _ZN11nymeaserver19ModbusRtuMasterImpl9setParityEN11QSerialPort6ParityE@Base 0.30.0
 _ZN11nymeaserver19ModbusRtuMasterImplC1ERK5QUuidRK7QStringiN11QSerialPort6ParityENS7_8DataBitsENS7_8StopBitsEiiP7QObject@Base 0.30.0
 _ZN11nymeaserver19ModbusRtuMasterImplC2ERK5QUuidRK7QStringiN11QSerialPort6ParityENS7_8DataBitsENS7_8StopBitsEiiP7QObject@Base 0.30.0
 _ZN11nymeaserver19ServerConfiguration16staticMetaObjectE@Base 0.30.0
 _ZN11nymeaserver19dcSerialPortMonitorEv@Base 0.30.0
 _ZN11nymeaserver20CertificateGenerator8generateERK7QStringS3_@Base 0.30.0
 _ZN11nymeaserver20ConfigurationHandler11qt_metacallEN11QMetaObject4CallEiPPv@Base 0.30.0
 _ZN11nymeaserver20ConfigurationHandler11qt_metacastEPKc@Base 0.30.0
 _ZN11nymeaserver20ConfigurationHandler15LanguageChangedERK4QMapI7QString8QVariantE@Base 0.30.0
 _ZN11nymeaserver20ConfigurationHandler16staticMetaObjectE@Base 0.30.0
 _ZN11nymeaserver20ConfigurationHandler17MqttPolicyChangedERK4QMapI7QString8QVariantE@Base 0.30.0
 _ZN11nymeaserver20ConfigurationHandler17MqttPolicyRemovedERK4QMapI7QString8QVariantE@Base 0.30.0
 _ZN11nymeaserver20ConfigurationHandler17onLanguageChangedEv@Base 0.30.0
 _ZN11nymeaserver20ConfigurationHandler19onMqttPolicyChangedERK7QString@Base 0.30.0
 _ZN11nymeaserver20ConfigurationHandler19onMqttPolicyRemovedERK7QString@Base 0.30.0
 _ZN11nymeaserver20ConfigurationHandler22packBasicConfigurationEv@Base 0.30.0
 _ZN11nymeaserver20ConfigurationHandler25BasicConfigurationChangedERK4QMapI7QString8QVariantE@Base 0.30.0
 _ZN11nymeaserver20ConfigurationHandler25CloudConfigurationChangedERK4QMapI7QString8QVariantE@Base 0.30.0
 _ZN11nymeaserver20ConfigurationHandler27onBasicConfigurationChangedEv@Base 0.30.0
 _ZN11nymeaserver20ConfigurationHandler27onCloudConfigurationChangedEb@Base 0.30.0
 _ZN11nymeaserver20ConfigurationHandler29TcpServerConfigurationChangedERK4QMapI7QString8QVariantE@Base 0.30.0
 _ZN11nymeaserver20ConfigurationHandler29TcpServerConfigurationRemovedERK4QMapI7QString8QVariantE@Base 0.30.0
 _ZN11nymeaserver20ConfigurationHandler29WebServerConfigurationChangedERK4QMapI7QString8QVariantE@Base 0.30.0
 _ZN11nymeaserver20ConfigurationHandler29WebServerConfigurationRemovedERK4QMapI7QString8QVariantE@Base 0.30.0
 _ZN11nymeaserver20ConfigurationHandler30MqttServerConfigurationChangedERK4QMapI7QString8QVariantE@Base 0.30.0
 _ZN11nymeaserver20ConfigurationHandler30MqttServerConfigurationRemovedERK4QMapI7QString8QVariantE@Base 0.30.0
 _ZN11nymeaserver20ConfigurationHandler31onTcpServerConfigurationChangedERK7QString@Base 0.30.0
 _ZN11nymeaserver20ConfigurationHandler31onTcpServerConfigurationRemovedERK7QString@Base 0.30.0
 _ZN11nymeaserver20ConfigurationHandler31onWebServerConfigurationChangedERK7QString@Base 0.30.0
 _ZN11nymeaserver20ConfigurationHandler31onWebServerConfigurationRemovedERK7QString@Base 0.30.0
 _ZN11nymeaserver20ConfigurationHandler32onMqttServerConfigurationChangedERK7QString@Base 0.30.0
 _ZN11nymeaserver20ConfigurationHandler32onMqttServerConfigurationRemovedERK7QString@Base 0.30.0
 _ZN11nymeaserver20ConfigurationHandler35WebSocketServerConfigurationChangedERK4QMapI7QString8QVariantE@Base 0.30.0
 _ZN11nymeaserver20ConfigurationHandler35WebSocketServerConfigurationRemovedERK4QMapI7QString8QVariantE@Base 0.30.0
 _ZN11nymeaserver20ConfigurationHandler37onWebSocketServerConfigurationChangedERK7QString@Base 0.30.0
 _ZN11nymeaserver20ConfigurationHandler37onWebSocketServerConfigurationRemovedERK7QString@Base 0.30.0
 _ZN11nymeaserver20ConfigurationHandlerC1EP7QObject@Base 0.30.0
 _ZN11nymeaserver20ConfigurationHandlerC2EP7QObject@Base 0.30.0
 _ZN11nymeaserver20DebugReportGenerator11qt_metacallEN11QMetaObject4CallEiPPv@Base 0.30.0
 _ZN11nymeaserver20DebugReportGenerator11qt_metacastEPKc@Base 0.30.0
 _ZN11nymeaserver20DebugReportGenerator11saveConfigsEv@Base 0.30.0
 _ZN11nymeaserver20DebugReportGenerator12saveLogFilesEv@Base 0.30.0
 _ZN11nymeaserver20DebugReportGenerator13cleanupReportEv@Base 0.30.0
 _ZN11nymeaserver20DebugReportGenerator14generateReportEv@Base 0.30.0
 _ZN11nymeaserver20DebugReportGenerator14reportFileNameEv@Base 0.30.0
 _ZN11nymeaserver20DebugReportGenerator16staticMetaObjectE@Base 0.30.0
 _ZN11nymeaserver20DebugReportGenerator20onDigProcessFinishedEiN8QProcess10ExitStatusE@Base 0.30.0
 _ZN11nymeaserver20DebugReportGenerator21onPingProcessFinishedEiN8QProcess10ExitStatusE@Base 0.30.0
 _ZN11nymeaserver20DebugReportGenerator21saveSystemInformationEv@Base 0.30.0
 _ZN11nymeaserver20DebugReportGenerator25copyFileToReportDirectoryERK7QStringS3_@Base 0.30.0
 _ZN11nymeaserver20DebugReportGenerator25onCompressProcessFinishedEiN8QProcess10ExitStatusE@Base 0.30.0
 _ZN11nymeaserver20DebugReportGenerator26onTracePathProcessFinishedEiN8QProcess10ExitStatusE@Base 0.30.0
 _ZN11nymeaserver20DebugReportGenerator30verifyRunningProcessesFinishedEv@Base 0.30.0
 _ZN11nymeaserver20DebugReportGenerator7saveEnvEv@Base 0.30.0
 _ZN11nymeaserver20DebugReportGenerator7timeoutEv@Base 0.30.0
 _ZN11nymeaserver20DebugReportGenerator8finishedEb@Base 0.30.0
 _ZN11nymeaserver20DebugReportGeneratorC1EP7QObject@Base 0.30.0
 _ZN11nymeaserver20DebugReportGeneratorC2EP7QObject@Base 0.30.0
 _ZN11nymeaserver20DebugReportGeneratorD0Ev@Base 0.30.0
 _ZN11nymeaserver20DebugReportGeneratorD1Ev@Base 0.30.0
 _ZN11nymeaserver20DebugReportGeneratorD2Ev@Base 0.30.0
 _ZN11nymeaserver20Radio433Brennenstuhl10setEnabledEb@Base 0.30.0
 _ZN11nymeaserver20Radio433Brennenstuhl11qt_metacallEN11QMetaObject4CallEiPPv@Base 0.30.0
 _ZN11nymeaserver20Radio433Brennenstuhl11qt_metacastEPKc@Base 0.30.0
 _ZN11nymeaserver20Radio433Brennenstuhl16staticMetaObjectE@Base 0.30.0
 _ZN11nymeaserver20Radio433Brennenstuhl28brennenstuhlAvailableChangedEb@Base 0.30.0
 _ZN11nymeaserver20Radio433Brennenstuhl8sendDataEi5QListIiEi@Base 0.30.0
 _ZN11nymeaserver20Radio433BrennenstuhlC1EP7QObject@Base 0.30.0
 _ZN11nymeaserver20Radio433BrennenstuhlC2EP7QObject@Base 0.30.0
 _ZN11nymeaserver20ScriptInterfaceEvent10classBeginEv@Base 0.30.0
 _ZN11nymeaserver20ScriptInterfaceEvent11qt_metacallEN11QMetaObject4CallEiPPv@Base 0.30.0
 _ZN11nymeaserver20ScriptInterfaceEvent11qt_metacastEPKc@Base 0.30.0
 _ZN11nymeaserver20ScriptInterfaceEvent12setEventNameERK7QString@Base 0.30.0
 _ZN11nymeaserver20ScriptInterfaceEvent16eventNameChangedEv@Base 0.30.0
 _ZN11nymeaserver20ScriptInterfaceEvent16onEventTriggeredERK5Event@Base 0.30.0
 _ZN11nymeaserver20ScriptInterfaceEvent16setInterfaceNameERK7QString@Base 0.30.0
 _ZN11nymeaserver20ScriptInterfaceEvent16staticMetaObjectE@Base 0.30.0
 _ZN11nymeaserver20ScriptInterfaceEvent17componentCompleteEv@Base 0.30.0
 _ZN11nymeaserver20ScriptInterfaceEvent20interfaceNameChangedEv@Base 0.30.0
 _ZN11nymeaserver20ScriptInterfaceEvent9triggeredERK7QStringRK4QMapIS1_8QVariantE@Base 0.30.0
 _ZN11nymeaserver20ScriptInterfaceEventC1EP7QObject@Base 0.30.0
 _ZN11nymeaserver20ScriptInterfaceEventC2EP7QObject@Base 0.30.0
 _ZN11nymeaserver20UpnpDiscoveryRequest11qt_metacallEN11QMetaObject4CallEiPPv@Base 0.30.0
 _ZN11nymeaserver20UpnpDiscoveryRequest11qt_metacastEPKc@Base 0.30.0
 _ZN11nymeaserver20UpnpDiscoveryRequest16discoveryTimeoutEv@Base 0.30.0
 _ZN11nymeaserver20UpnpDiscoveryRequest16staticMetaObjectE@Base 0.30.0
 _ZN11nymeaserver20UpnpDiscoveryRequest19addDeviceDescriptorERK20UpnpDeviceDescriptor@Base 0.30.0
 _ZN11nymeaserver20UpnpDiscoveryRequest20createNetworkRequestE20UpnpDeviceDescriptor@Base 0.30.0
 _ZN11nymeaserver20UpnpDiscoveryRequest5replyEv@Base 0.30.0
 _ZN11nymeaserver20UpnpDiscoveryRequest8discoverEi@Base 0.30.0
 _ZN11nymeaserver20UpnpDiscoveryRequest9onTimeoutEv@Base 0.30.0
 _ZN11nymeaserver20UpnpDiscoveryRequestC1EP13UpnpDiscovery8QPointerINS_32UpnpDiscoveryReplyImplementationEE@Base 0.30.0
 _ZN11nymeaserver20UpnpDiscoveryRequestC2EP13UpnpDiscovery8QPointerINS_32UpnpDiscoveryReplyImplementationEE@Base 0.30.0
 _ZN11nymeaserver21NetworkManagerHandler11qt_metacallEN11QMetaObject4CallEiPPv@Base 0.30.0
 _ZN11nymeaserver21NetworkManagerHandler11qt_metacastEPKc@Base 0.30.0
 _ZN11nymeaserver21NetworkManagerHandler16EnableNetworkingERK4QMapI7QString8QVariantE@Base 0.30.0
 _ZN11nymeaserver21NetworkManagerHandler16GetNetworkStatusERK4QMapI7QString8QVariantE@Base 0.30.0
 _ZN11nymeaserver21NetworkManagerHandler16ScanWifiNetworksERK4QMapI7QString8QVariantE@Base 0.30.0
 _ZN11nymeaserver21NetworkManagerHandler16StartAccessPointERK4QMapI7QString8QVariantE@Base 0.30.0
 _ZN11nymeaserver21NetworkManagerHandler16staticMetaObjectE@Base 0.30.0
 _ZN11nymeaserver21NetworkManagerHandler17GetNetworkDevicesERK4QMapI7QString8QVariantE@Base 0.30.0
 _ZN11nymeaserver21NetworkManagerHandler18ConnectWifiNetworkERK4QMapI7QString8QVariantE@Base 0.30.0
 _ZN11nymeaserver21NetworkManagerHandler19DisconnectInterfaceERK4QMapI7QString8QVariantE@Base 0.30.0
 _ZN11nymeaserver21NetworkManagerHandler20NetworkStatusChangedERK4QMapI7QString8QVariantE@Base 0.30.0
 _ZN11nymeaserver21NetworkManagerHandler22packWiredNetworkDeviceEP18WiredNetworkDevice@Base 0.30.0
 _ZN11nymeaserver21NetworkManagerHandler23GetWirelessAccessPointsERK4QMapI7QString8QVariantE@Base 0.30.0
 _ZN11nymeaserver21NetworkManagerHandler23WiredNetworkDeviceAddedERK4QMapI7QString8QVariantE@Base 0.30.0
 _ZN11nymeaserver21NetworkManagerHandler23packWirelessAccessPointEP19WirelessAccessPoint@Base 0.30.0
 _ZN11nymeaserver21NetworkManagerHandler24EnableWirelessNetworkingERK4QMapI7QString8QVariantE@Base 0.30.0
 _ZN11nymeaserver21NetworkManagerHandler24packNetworkManagerStatusEv@Base 0.30.0
 _ZN11nymeaserver21NetworkManagerHandler25WiredNetworkDeviceChangedERK4QMapI7QString8QVariantE@Base 0.30.0
 _ZN11nymeaserver21NetworkManagerHandler25WiredNetworkDeviceRemovedERK4QMapI7QString8QVariantE@Base 0.30.0
 _ZN11nymeaserver21NetworkManagerHandler25onWiredNetworkDeviceAddedEP18WiredNetworkDevice@Base 0.30.0
 _ZN11nymeaserver21NetworkManagerHandler25packWirelessNetworkDeviceEP21WirelessNetworkDevice@Base 0.30.0
 _ZN11nymeaserver21NetworkManagerHandler26WirelessNetworkDeviceAddedERK4QMapI7QString8QVariantE@Base 0.30.0
 _ZN11nymeaserver21NetworkManagerHandler27onWiredNetworkDeviceChangedEP18WiredNetworkDevice@Base 0.30.0
 _ZN11nymeaserver21NetworkManagerHandler27onWiredNetworkDeviceRemovedERK7QString@Base 0.30.0
 _ZN11nymeaserver21NetworkManagerHandler28WirelessNetworkDeviceChangedERK4QMapI7QString8QVariantE@Base 0.30.0
 _ZN11nymeaserver21NetworkManagerHandler28WirelessNetworkDeviceRemovedERK4QMapI7QString8QVariantE@Base 0.30.0
 _ZN11nymeaserver21NetworkManagerHandler28onWirelessNetworkDeviceAddedEP21WirelessNetworkDevice@Base 0.30.0
 _ZN11nymeaserver21NetworkManagerHandler29onNetworkManagerStatusChangedEv@Base 0.30.0
 _ZN11nymeaserver21NetworkManagerHandler30onWirelessNetworkDeviceChangedEP21WirelessNetworkDevice@Base 0.30.0
 _ZN11nymeaserver21NetworkManagerHandler30onWirelessNetworkDeviceRemovedERK7QString@Base 0.30.0
 _ZN11nymeaserver21NetworkManagerHandlerC1EP14NetworkManagerP7QObject@Base 0.30.0
 _ZN11nymeaserver21NetworkManagerHandlerC2EP14NetworkManagerP7QObject@Base 0.30.0
 _ZN11nymeaserver21PushButtonDBusService11qt_metacallEN11QMetaObject4CallEiPPv@Base 0.30.0
 _ZN11nymeaserver21PushButtonDBusService11qt_metacastEPKc@Base 0.30.0
 _ZN11nymeaserver21PushButtonDBusService16staticMetaObjectE@Base 0.30.0
 _ZN11nymeaserver21PushButtonDBusService17GenerateAuthTokenERK7QString@Base 0.30.0
 _ZN11nymeaserver21PushButtonDBusService17pushButtonPressedEv@Base 0.30.0
 _ZN11nymeaserver21PushButtonDBusService19RegisterButtonAgentERK15QDBusObjectPath@Base 0.30.0
 _ZN11nymeaserver21PushButtonDBusService19serviceUnregisteredERK7QString@Base 0.30.0
 _ZN11nymeaserver21PushButtonDBusService21UnregisterButtonAgentEv@Base 0.30.0
 _ZN11nymeaserver21PushButtonDBusServiceC1ERK7QStringPNS_11UserManagerE@Base 0.30.0
 _ZN11nymeaserver21PushButtonDBusServiceC2ERK7QStringPNS_11UserManagerE@Base 0.30.0
 _ZN11nymeaserver21ScriptInterfaceAction10classBeginEv@Base 0.30.0
 _ZN11nymeaserver21ScriptInterfaceAction11qt_metacallEN11QMetaObject4CallEiPPv@Base 0.30.0
 _ZN11nymeaserver21ScriptInterfaceAction11qt_metacastEPKc@Base 0.30.0
 _ZN11nymeaserver21ScriptInterfaceAction13setActionNameERK7QString@Base 0.30.0
 _ZN11nymeaserver21ScriptInterfaceAction16setInterfaceNameERK7QString@Base 0.30.0
 _ZN11nymeaserver21ScriptInterfaceAction16staticMetaObjectE@Base 0.30.0
 _ZN11nymeaserver21ScriptInterfaceAction17actionNameChangedEv@Base 0.30.0
 _ZN11nymeaserver21ScriptInterfaceAction17componentCompleteEv@Base 0.30.0
 _ZN11nymeaserver21ScriptInterfaceAction20interfaceNameChangedEv@Base 0.30.0
 _ZN11nymeaserver21ScriptInterfaceAction7executeERK4QMapI7QString8QVariantE@Base 0.30.0
 _ZN11nymeaserver21ScriptInterfaceActionC1EP7QObject@Base 0.30.0
 _ZN11nymeaserver21ScriptInterfaceActionC2EP7QObject@Base 0.30.0
 _ZN11nymeaserver22WebServerConfiguration16staticMetaObjectE@Base 0.30.0
 _ZN11nymeaserver24I2CManagerImplementation11qt_metacallEN11QMetaObject4CallEiPPv@Base 0.30.0
 _ZN11nymeaserver24I2CManagerImplementation11qt_metacastEPKc@Base 0.30.0
 _ZN11nymeaserver24I2CManagerImplementation11stopReadingEP9I2CDevice@Base 0.30.0
 _ZN11nymeaserver24I2CManagerImplementation12startReadingEP9I2CDevicei@Base 0.30.0
 _ZN11nymeaserver24I2CManagerImplementation13scanRegistersERK7QString@Base 0.30.0
 _ZN11nymeaserver24I2CManagerImplementation16staticMetaObjectE@Base 0.30.0
 _ZN11nymeaserver24I2CManagerImplementation4openEP9I2CDevice@Base 0.30.0
 _ZN11nymeaserver24I2CManagerImplementation5closeEP9I2CDevice@Base 0.30.0
 _ZN11nymeaserver24I2CManagerImplementation9nextCycleEv@Base 0.30.0
 _ZN11nymeaserver24I2CManagerImplementation9writeDataEP9I2CDeviceRK10QByteArray@Base 0.30.0
 _ZN11nymeaserver24I2CManagerImplementationC1EP7QObject@Base 0.30.0
 _ZN11nymeaserver24I2CManagerImplementationC2EP7QObject@Base 0.30.0
 _ZN11nymeaserver24I2CManagerImplementationD0Ev@Base 0.30.0
 _ZN11nymeaserver24I2CManagerImplementationD1Ev@Base 0.30.0
 _ZN11nymeaserver24I2CManagerImplementationD2Ev@Base 0.30.0
 _ZN11nymeaserver24NetworkAccessManagerImpl10setEnabledEb@Base 0.30.0
 _ZN11nymeaserver24NetworkAccessManagerImpl11qt_metacallEN11QMetaObject4CallEiPPv@Base 0.30.0
 _ZN11nymeaserver24NetworkAccessManagerImpl11qt_metacastEPKc@Base 0.30.0
 _ZN11nymeaserver24NetworkAccessManagerImpl14deleteResourceERK15QNetworkRequest@Base 0.30.0
 _ZN11nymeaserver24NetworkAccessManagerImpl14networkTimeoutEv@Base 0.30.0
 _ZN11nymeaserver24NetworkAccessManagerImpl16staticMetaObjectE@Base 0.30.0
 _ZN11nymeaserver24NetworkAccessManagerImpl17sendCustomRequestERK15QNetworkRequestRK10QByteArrayP9QIODevice@Base 0.30.0
 _ZN11nymeaserver24NetworkAccessManagerImpl18hookupTimeoutTimerEP13QNetworkReply@Base 0.30.0
 _ZN11nymeaserver24NetworkAccessManagerImpl20networkReplyFinishedEv@Base 0.30.0
 _ZN11nymeaserver24NetworkAccessManagerImpl3getERK15QNetworkRequest@Base 0.30.0
 _ZN11nymeaserver24NetworkAccessManagerImpl3putERK15QNetworkRequestP14QHttpMultiPart@Base 0.30.0
 _ZN11nymeaserver24NetworkAccessManagerImpl3putERK15QNetworkRequestP9QIODevice@Base 0.30.0
 _ZN11nymeaserver24NetworkAccessManagerImpl3putERK15QNetworkRequestRK10QByteArray@Base 0.30.0
 _ZN11nymeaserver24NetworkAccessManagerImpl4headERK15QNetworkRequest@Base 0.30.0
 _ZN11nymeaserver24NetworkAccessManagerImpl4postERK15QNetworkRequestP14QHttpMultiPart@Base 0.30.0
 _ZN11nymeaserver24NetworkAccessManagerImpl4postERK15QNetworkRequestP9QIODevice@Base 0.30.0
 _ZN11nymeaserver24NetworkAccessManagerImpl4postERK15QNetworkRequestRK10QByteArray@Base 0.30.0
 _ZN11nymeaserver24NetworkAccessManagerImplC1EP21QNetworkAccessManagerP7QObject@Base 0.30.0
 _ZN11nymeaserver24NetworkAccessManagerImplC2EP21QNetworkAccessManagerP7QObject@Base 0.30.0
 _ZN11nymeaserver25MqttChannelImplementation11qt_metacallEN11QMetaObject4CallEiPPv@Base 0.30.0
 _ZN11nymeaserver25MqttChannelImplementation11qt_metacastEPKc@Base 0.30.0
 _ZN11nymeaserver25MqttChannelImplementation15pluginPublishedERK7QStringRK10QByteArray@Base 0.30.0
 _ZN11nymeaserver25MqttChannelImplementation16staticMetaObjectE@Base 0.30.0
 _ZN11nymeaserver25MqttChannelImplementation7publishERK7QStringRK10QByteArray@Base 0.30.0
 _ZN11nymeaserver25MqttChannelImplementationC1Ev@Base 0.30.0
 _ZN11nymeaserver25MqttChannelImplementationC2Ev@Base 0.30.0
 _ZN11nymeaserver25PluginTimerImplementation10setRunningEb@Base 0.30.0
 _ZN11nymeaserver25PluginTimerImplementation11qt_metacallEN11QMetaObject4CallEiPPv@Base 0.30.0
 _ZN11nymeaserver25PluginTimerImplementation11qt_metacastEPKc@Base 0.30.0
 _ZN11nymeaserver25PluginTimerImplementation14setCurrentTickEi@Base 0.30.0
 _ZN11nymeaserver25PluginTimerImplementation16staticMetaObjectE@Base 0.30.0
 _ZN11nymeaserver25PluginTimerImplementation4stopEv@Base 0.30.0
 _ZN11nymeaserver25PluginTimerImplementation4tickEv@Base 0.30.0
 _ZN11nymeaserver25PluginTimerImplementation5pauseEv@Base 0.30.0
 _ZN11nymeaserver25PluginTimerImplementation5resetEv@Base 0.30.0
 _ZN11nymeaserver25PluginTimerImplementation5startEv@Base 0.30.0
 _ZN11nymeaserver25PluginTimerImplementation6resumeEv@Base 0.30.0
 _ZN11nymeaserver25PluginTimerImplementation9setPausedEb@Base 0.30.0
 _ZN11nymeaserver25PluginTimerImplementationC1EiP7QObject@Base 0.30.0
 _ZN11nymeaserver25PluginTimerImplementationC2EiP7QObject@Base 0.30.0
 _ZN11nymeaserver26MqttProviderImplementation10setEnabledEb@Base 0.30.0
 _ZN11nymeaserver26MqttProviderImplementation11qt_metacallEN11QMetaObject4CallEiPPv@Base 0.30.0
 _ZN11nymeaserver26MqttProviderImplementation11qt_metacastEPKc@Base 0.30.0
 _ZN11nymeaserver26MqttProviderImplementation13createChannelERK12QHostAddressRK11QStringList@Base 0.30.0
 _ZN11nymeaserver26MqttProviderImplementation13createChannelERK7QStringRK12QHostAddressRK11QStringList@Base 0.30.0
 _ZN11nymeaserver26MqttProviderImplementation13createChannelERK7QStringS3_S3_RK12QHostAddressRK11QStringList@Base 0.30.0
 _ZN11nymeaserver26MqttProviderImplementation14releaseChannelEP11MqttChannel@Base 0.30.0
 _ZN11nymeaserver26MqttProviderImplementation16staticMetaObjectE@Base 0.30.0
 _ZN11nymeaserver26MqttProviderImplementation17onClientConnectedERK7QString@Base 0.30.0
 _ZN11nymeaserver26MqttProviderImplementation17onPluginPublishedERK7QStringRK10QByteArray@Base 0.30.0
 _ZN11nymeaserver26MqttProviderImplementation17onPublishReceivedERK7QStringS3_RK10QByteArray@Base 0.30.0
 _ZN11nymeaserver26MqttProviderImplementation20createInternalClientERK7QString@Base 0.30.0
 _ZN11nymeaserver26MqttProviderImplementation20onClientDisconnectedERK7QString@Base 0.30.0
 _ZN11nymeaserver26MqttProviderImplementationC1EPNS_10MqttBrokerEP7QObject@Base 0.30.0
 _ZN11nymeaserver26MqttProviderImplementationC2EPNS_10MqttBrokerEP7QObject@Base 0.30.0
 _ZN11nymeaserver27JsonRPCServerImplementation10CreateUserERK4QMapI7QString8QVariantE@Base 0.30.0
 _ZN11nymeaserver27JsonRPCServerImplementation11RemoveTokenERK4QMapI7QString8QVariantE@Base 0.30.0
 _ZN11nymeaserver27JsonRPCServerImplementation11processDataERK5QUuidRK10QByteArray@Base 0.30.0
 _ZN11nymeaserver27JsonRPCServerImplementation11qt_metacallEN11QMetaObject4CallEiPPv@Base 0.30.0
 _ZN11nymeaserver27JsonRPCServerImplementation11qt_metacastEPKc@Base 0.30.0
 _ZN11nymeaserver27JsonRPCServerImplementation12AuthenticateERK4QMapI7QString8QVariantE@Base 0.30.0
 _ZN11nymeaserver27JsonRPCServerImplementation12sendResponseEPNS_18TransportInterfaceERK5QUuidiRK4QMapI7QString8QVariantERKS7_@Base 0.30.0
 _ZN11nymeaserver27JsonRPCServerImplementation15clientConnectedERK5QUuid@Base 0.30.0
 _ZN11nymeaserver27JsonRPCServerImplementation15pairingFinishedE7QStringiRKS1_@Base 0.30.0
 _ZN11nymeaserver27JsonRPCServerImplementation15registerHandlerEP11JsonHandler@Base 0.30.0
 _ZN11nymeaserver27JsonRPCServerImplementation16IsCloudConnectedERK4QMapI7QString8QVariantE@Base 0.30.0
 _ZN11nymeaserver27JsonRPCServerImplementation16sendNotificationERK4QMapI7QString8QVariantE@Base 0.30.0
 _ZN11nymeaserver27JsonRPCServerImplementation16staticMetaObjectE@Base 0.30.0
 _ZN11nymeaserver27JsonRPCServerImplementation17SetupRemoteAccessERK4QMapI7QString8QVariantE@Base 0.30.0
 _ZN11nymeaserver27JsonRPCServerImplementation17processJsonPacketEPNS_18TransportInterfaceERK5QUuidRK10QByteArray@Base 0.30.0
 _ZN11nymeaserver27JsonRPCServerImplementation17sendErrorResponseEPNS_18TransportInterfaceERK5QUuidiRK7QString@Base 0.30.0
 _ZN11nymeaserver27JsonRPCServerImplementation18asyncReplyFinishedEv@Base 0.30.0
 _ZN11nymeaserver27JsonRPCServerImplementation18clientDisconnectedERK5QUuid@Base 0.30.0
 _ZN11nymeaserver27JsonRPCServerImplementation20SetupCloudConnectionERK4QMapI7QString8QVariantE@Base 0.30.0
 _ZN11nymeaserver27JsonRPCServerImplementation21CloudConnectedChangedERK4QMapI7QString8QVariantE@Base 0.30.0
 _ZN11nymeaserver27JsonRPCServerImplementation21RequestPushButtonAuthERK4QMapI7QString8QVariantERK11JsonContext@Base 0.30.0
 _ZN11nymeaserver27JsonRPCServerImplementation21SetNotificationStatusERK4QMapI7QString8QVariantERK11JsonContext@Base 0.30.0
 _ZN11nymeaserver27JsonRPCServerImplementation22PushButtonAuthFinishedERK5QUuidRK4QMapI7QString8QVariantE@Base 0.30.0
 _ZN11nymeaserver27JsonRPCServerImplementation22sendClientNotificationERK5QUuidRK4QMapI7QString8QVariantE@Base 0.30.0
 _ZN11nymeaserver27JsonRPCServerImplementation24onPushButtonAuthFinishedEibRK10QByteArray@Base 0.30.0
 _ZN11nymeaserver27JsonRPCServerImplementation24sendUnauthorizedResponseEPNS_18TransportInterfaceERK5QUuidiRK7QString@Base 0.30.0
 _ZN11nymeaserver27JsonRPCServerImplementation25registerExperienceHandlerEP11JsonHandlerii@Base 0.30.0
 _ZN11nymeaserver27JsonRPCServerImplementation26registerTransportInterfaceEPNS_18TransportInterfaceEb@Base 0.30.0
 _ZN11nymeaserver27JsonRPCServerImplementation28unregisterTransportInterfaceEPNS_18TransportInterfaceE@Base 0.30.0
 _ZN11nymeaserver27JsonRPCServerImplementation29onCloudConnectionStateChangedEv@Base 0.30.0
 _ZN11nymeaserver27JsonRPCServerImplementation5HelloERK4QMapI7QString8QVariantERK11JsonContext@Base 0.30.0
 _ZN11nymeaserver27JsonRPCServerImplementation5setupEv@Base 0.30.0
 _ZN11nymeaserver27JsonRPCServerImplementation9KeepAliveERK4QMapI7QString8QVariantE@Base 0.30.0
 _ZN11nymeaserver27JsonRPCServerImplementationC1ERK17QSslConfigurationP7QObject@Base 0.30.0
 _ZN11nymeaserver27JsonRPCServerImplementationC2ERK17QSslConfigurationP7QObject@Base 0.30.0
 _ZN11nymeaserver27Radio433BrennenstuhlGateway11qt_metacallEN11QMetaObject4CallEiPPv@Base 0.30.0
 _ZN11nymeaserver27Radio433BrennenstuhlGateway11qt_metacastEPKc@Base 0.30.0
 _ZN11nymeaserver27Radio433BrennenstuhlGateway12gatewayErrorEN15QAbstractSocket11SocketErrorE@Base 0.30.0
 _ZN11nymeaserver27Radio433BrennenstuhlGateway16availableChangedERKb@Base 0.30.0
 _ZN11nymeaserver27Radio433BrennenstuhlGateway16staticMetaObjectE@Base 0.30.0
 _ZN11nymeaserver27Radio433BrennenstuhlGateway6enableEv@Base 0.30.0
 _ZN11nymeaserver27Radio433BrennenstuhlGateway7disableEv@Base 0.30.0
 _ZN11nymeaserver27Radio433BrennenstuhlGateway7timeoutEv@Base 0.30.0
 _ZN11nymeaserver27Radio433BrennenstuhlGateway8discoverEv@Base 0.30.0
 _ZN11nymeaserver27Radio433BrennenstuhlGateway8readDataEv@Base 0.30.0
 _ZN11nymeaserver27Radio433BrennenstuhlGateway8sendDataEi5QListIiEi@Base 0.30.0
 _ZN11nymeaserver27Radio433BrennenstuhlGateway9availableEv@Base 0.30.0
 _ZN11nymeaserver27Radio433BrennenstuhlGatewayC1EP7QObject@Base 0.30.0
 _ZN11nymeaserver27Radio433BrennenstuhlGatewayC2EP7QObject@Base 0.30.0
 _ZN11nymeaserver27UpnpDiscoveryImplementation10setEnabledEb@Base 0.30.0
 _ZN11nymeaserver27UpnpDiscoveryImplementation11qt_metacallEN11QMetaObject4CallEiPPv@Base 0.30.0
 _ZN11nymeaserver27UpnpDiscoveryImplementation11qt_metacastEPKc@Base 0.30.0
 _ZN11nymeaserver27UpnpDiscoveryImplementation13replyFinishedEv@Base 0.30.0
 _ZN11nymeaserver27UpnpDiscoveryImplementation15discoverDevicesERK7QStringS3_RKi@Base 0.30.0
 _ZN11nymeaserver27UpnpDiscoveryImplementation15discoverTimeoutEv@Base 0.30.0
 _ZN11nymeaserver27UpnpDiscoveryImplementation15sendToMulticastERK10QByteArray@Base 0.30.0
 _ZN11nymeaserver27UpnpDiscoveryImplementation16sendAliveMessageEv@Base 0.30.0
 _ZN11nymeaserver27UpnpDiscoveryImplementation16staticMetaObjectE@Base 0.30.0
 _ZN11nymeaserver27UpnpDiscoveryImplementation17sendByeByeMessageEv@Base 0.30.0
 _ZN11nymeaserver27UpnpDiscoveryImplementation19notificationTimeoutEv@Base 0.30.0
 _ZN11nymeaserver27UpnpDiscoveryImplementation22respondToSearchRequestE12QHostAddressi@Base 0.30.0
 _ZN11nymeaserver27UpnpDiscoveryImplementation24requestDeviceInformationERK15QNetworkRequestRK20UpnpDeviceDescriptor@Base 0.30.0
 _ZN11nymeaserver27UpnpDiscoveryImplementation27networkConfigurationChangedERK21QNetworkConfiguration@Base 0.30.0
 _ZN11nymeaserver27UpnpDiscoveryImplementation5errorEN15QAbstractSocket11SocketErrorE@Base 0.30.0
 _ZN11nymeaserver27UpnpDiscoveryImplementation6enableEv@Base 0.30.0
 _ZN11nymeaserver27UpnpDiscoveryImplementation7disableEv@Base 0.30.0
 _ZN11nymeaserver27UpnpDiscoveryImplementation8readDataEv@Base 0.30.0
 _ZN11nymeaserver27UpnpDiscoveryImplementationC1EP21QNetworkAccessManagerP7QObject@Base 0.30.0
 _ZN11nymeaserver27UpnpDiscoveryImplementationC2EP21QNetworkAccessManagerP7QObject@Base 0.30.0
 _ZN11nymeaserver27UpnpDiscoveryImplementationD0Ev@Base 0.30.0
 _ZN11nymeaserver27UpnpDiscoveryImplementationD1Ev@Base 0.30.0
 _ZN11nymeaserver27UpnpDiscoveryImplementationD2Ev@Base 0.30.0
 _ZN11nymeaserver29HardwareManagerImplementation10i2cManagerEv@Base 0.30.0
 _ZN11nymeaserver29HardwareManagerImplementation11qt_metacallEN11QMetaObject4CallEiPPv@Base 0.30.0
 _ZN11nymeaserver29HardwareManagerImplementation11qt_metacastEPKc@Base 0.30.0
 _ZN11nymeaserver29HardwareManagerImplementation12mqttProviderEv@Base 0.30.0
 _ZN11nymeaserver29HardwareManagerImplementation12thingsLoadedEv@Base 0.30.0
 _ZN11nymeaserver29HardwareManagerImplementation13upnpDiscoveryEv@Base 0.30.0
 _ZN11nymeaserver29HardwareManagerImplementation14networkManagerEv@Base 0.30.0
 _ZN11nymeaserver29HardwareManagerImplementation14zigbeeResourceEv@Base 0.30.0
 _ZN11nymeaserver29HardwareManagerImplementation16staticMetaObjectE@Base 0.30.0
 _ZN11nymeaserver29HardwareManagerImplementation17modbusRtuResourceEv@Base 0.30.0
 _ZN11nymeaserver29HardwareManagerImplementation18pluginTimerManagerEv@Base 0.30.0
 _ZN11nymeaserver29HardwareManagerImplementation18zeroConfControllerEv@Base 0.30.0
 _ZN11nymeaserver29HardwareManagerImplementation22networkDeviceDiscoveryEv@Base 0.30.0
 _ZN11nymeaserver29HardwareManagerImplementation25bluetoothLowEnergyManagerEv@Base 0.30.0
 _ZN11nymeaserver29HardwareManagerImplementation8radio433Ev@Base 0.30.0
 _ZN11nymeaserver29HardwareManagerImplementationC1EPNS_8PlatformEPNS_10MqttBrokerEPNS_13ZigbeeManagerEPNS_16ModbusRtuManagerEP7QObject@Base 0.30.0
 _ZN11nymeaserver29HardwareManagerImplementationC2EPNS_8PlatformEPNS_10MqttBrokerEPNS_13ZigbeeManagerEPNS_16ModbusRtuManagerEP7QObject@Base 0.30.0
 _ZN11nymeaserver29HardwareManagerImplementationD0Ev@Base 0.30.0
 _ZN11nymeaserver29HardwareManagerImplementationD1Ev@Base 0.30.0
 _ZN11nymeaserver29HardwareManagerImplementationD2Ev@Base 0.30.0
 _ZN11nymeaserver32PluginTimerManagerImplementation10setEnabledEb@Base 0.30.0
 _ZN11nymeaserver32PluginTimerManagerImplementation11qt_metacallEN11QMetaObject4CallEiPPv@Base 0.30.0
 _ZN11nymeaserver32PluginTimerManagerImplementation11qt_metacastEPKc@Base 0.30.0
 _ZN11nymeaserver32PluginTimerManagerImplementation13registerTimerEi@Base 0.30.0
 _ZN11nymeaserver32PluginTimerManagerImplementation15unregisterTimerEP11PluginTimer@Base 0.30.0
 _ZN11nymeaserver32PluginTimerManagerImplementation16staticMetaObjectE@Base 0.30.0
 _ZN11nymeaserver32PluginTimerManagerImplementation6enableEv@Base 0.30.0
 _ZN11nymeaserver32PluginTimerManagerImplementation7disableEv@Base 0.30.0
 _ZN11nymeaserver32PluginTimerManagerImplementation8timeTickEv@Base 0.30.0
 _ZN11nymeaserver32PluginTimerManagerImplementationC1EP7QObject@Base 0.30.0
 _ZN11nymeaserver32PluginTimerManagerImplementationC2EP7QObject@Base 0.30.0
 _ZN11nymeaserver32UpnpDiscoveryReplyImplementation11qt_metacallEN11QMetaObject4CallEiPPv@Base 0.30.0
 _ZN11nymeaserver32UpnpDiscoveryReplyImplementation11qt_metacastEPKc@Base 0.30.0
 _ZN11nymeaserver32UpnpDiscoveryReplyImplementation11setFinishedEv@Base 0.30.0
 _ZN11nymeaserver32UpnpDiscoveryReplyImplementation16staticMetaObjectE@Base 0.30.0
 _ZN11nymeaserver32UpnpDiscoveryReplyImplementation20setDeviceDescriptorsERK5QListI20UpnpDeviceDescriptorE@Base 0.30.0
 _ZN11nymeaserver32UpnpDiscoveryReplyImplementation8setErrorERKN18UpnpDiscoveryReply23UpnpDiscoveryReplyErrorE@Base 0.30.0
 _ZN11nymeaserver32UpnpDiscoveryReplyImplementationC1ERK7QStringS3_P7QObject@Base 0.30.0
 _ZN11nymeaserver32UpnpDiscoveryReplyImplementationC2ERK7QStringS3_P7QObject@Base 0.30.0
 _ZN11nymeaserver36ZigbeeHardwareResourceImplementation10setEnabledEb@Base 0.30.0
 _ZN11nymeaserver36ZigbeeHardwareResourceImplementation11qt_metacallEN11QMetaObject4CallEiPPv@Base 0.30.0
 _ZN11nymeaserver36ZigbeeHardwareResourceImplementation11qt_metacastEPKc@Base 0.30.0
 _ZN11nymeaserver36ZigbeeHardwareResourceImplementation12networkStateERK5QUuid@Base 0.30.0
 _ZN11nymeaserver36ZigbeeHardwareResourceImplementation12thingsLoadedEv@Base 0.30.0
 _ZN11nymeaserver36ZigbeeHardwareResourceImplementation15registerHandlerEP13ZigbeeHandlerN22ZigbeeHardwareResource11HandlerTypeE@Base 0.30.0
 _ZN11nymeaserver36ZigbeeHardwareResourceImplementation16staticMetaObjectE@Base 0.30.0
 _ZN11nymeaserver36ZigbeeHardwareResourceImplementation17onZigbeeNodeAddedERK5QUuidP10ZigbeeNode@Base 0.30.0
 _ZN11nymeaserver36ZigbeeHardwareResourceImplementation18coordinatorAddressERK5QUuid@Base 0.30.0
 _ZN11nymeaserver36ZigbeeHardwareResourceImplementation19onZigbeeNodeRemovedERK5QUuidP10ZigbeeNode@Base 0.30.0
 _ZN11nymeaserver36ZigbeeHardwareResourceImplementation21removeNodeFromNetworkERK5QUuidP10ZigbeeNode@Base 0.30.0
 _ZN11nymeaserver36ZigbeeHardwareResourceImplementation22onZigbeeNetworkChangedEP13ZigbeeNetwork@Base 0.30.0
 _ZN11nymeaserver36ZigbeeHardwareResourceImplementation24onZigbeeAvailableChangedEb@Base 0.30.0
 _ZN11nymeaserver36ZigbeeHardwareResourceImplementation6enableEv@Base 0.30.0
 _ZN11nymeaserver36ZigbeeHardwareResourceImplementation7disableEv@Base 0.30.0
 _ZN11nymeaserver36ZigbeeHardwareResourceImplementation9claimNodeEP13ZigbeeHandlerRK5QUuidRK13ZigbeeAddress@Base 0.30.0
 _ZN11nymeaserver36ZigbeeHardwareResourceImplementationC1EPNS_13ZigbeeManagerEP7QObject@Base 0.30.0
 _ZN11nymeaserver36ZigbeeHardwareResourceImplementationC2EPNS_13ZigbeeManagerEP7QObject@Base 0.30.0
 _ZN11nymeaserver37BluetoothDiscoveryReplyImplementation11qt_metacallEN11QMetaObject4CallEiPPv@Base 0.30.0
 _ZN11nymeaserver37BluetoothDiscoveryReplyImplementation11qt_metacastEPKc@Base 0.30.0
 _ZN11nymeaserver37BluetoothDiscoveryReplyImplementation11setFinishedEv@Base 0.30.0
 _ZN11nymeaserver37BluetoothDiscoveryReplyImplementation16staticMetaObjectE@Base 0.30.0
 _ZN11nymeaserver37BluetoothDiscoveryReplyImplementation20setDiscoveredDevicesERK5QListI20QBluetoothDeviceInfoE@Base 0.30.0
 _ZN11nymeaserver37BluetoothDiscoveryReplyImplementation8setErrorERKN23BluetoothDiscoveryReply28BluetoothDiscoveryReplyErrorE@Base 0.30.0
 _ZN11nymeaserver37BluetoothDiscoveryReplyImplementationC1EP7QObject@Base 0.30.0
 _ZN11nymeaserver37BluetoothDiscoveryReplyImplementationC2EP7QObject@Base 0.30.0
 _ZN11nymeaserver38BluetoothLowEnergyDeviceImplementation10setEnabledERKb@Base 0.30.0
 _ZN11nymeaserver38BluetoothLowEnergyDeviceImplementation11onConnectedEv@Base 0.30.0
 _ZN11nymeaserver38BluetoothLowEnergyDeviceImplementation11qt_metacallEN11QMetaObject4CallEiPPv@Base 0.30.0
 _ZN11nymeaserver38BluetoothLowEnergyDeviceImplementation11qt_metacastEPKc@Base 0.30.0
 _ZN11nymeaserver38BluetoothLowEnergyDeviceImplementation12setConnectedERKb@Base 0.30.0
 _ZN11nymeaserver38BluetoothLowEnergyDeviceImplementation13connectDeviceEv@Base 0.30.0
 _ZN11nymeaserver38BluetoothLowEnergyDeviceImplementation13onDeviceErrorERKN20QLowEnergyController5ErrorE@Base 0.30.0
 _ZN11nymeaserver38BluetoothLowEnergyDeviceImplementation14onDisconnectedEv@Base 0.30.0
 _ZN11nymeaserver38BluetoothLowEnergyDeviceImplementation14onStateChangedERKN20QLowEnergyController15ControllerStateE@Base 0.30.0
 _ZN11nymeaserver38BluetoothLowEnergyDeviceImplementation16disconnectDeviceEv@Base 0.30.0
 _ZN11nymeaserver38BluetoothLowEnergyDeviceImplementation16staticMetaObjectE@Base 0.30.0
 _ZN11nymeaserver38BluetoothLowEnergyDeviceImplementation17setAutoConnectingERKb@Base 0.30.0
 _ZN11nymeaserver38BluetoothLowEnergyDeviceImplementation26onServiceDiscoveryFinishedEv@Base 0.30.0
 _ZN11nymeaserver38BluetoothLowEnergyDeviceImplementationC1ERK20QBluetoothDeviceInfoRKN20QLowEnergyController17RemoteAddressTypeEP7QObject@Base 0.30.0
 _ZN11nymeaserver38BluetoothLowEnergyDeviceImplementationC2ERK20QBluetoothDeviceInfoRKN20QLowEnergyController17RemoteAddressTypeEP7QObject@Base 0.30.0
 _ZN11nymeaserver39BluetoothLowEnergyManagerImplementation10setEnabledEb@Base 0.30.0
 _ZN11nymeaserver39BluetoothLowEnergyManagerImplementation11qt_metacallEN11QMetaObject4CallEiPPv@Base 0.30.0
 _ZN11nymeaserver39BluetoothLowEnergyManagerImplementation11qt_metacastEPKc@Base 0.30.0
 _ZN11nymeaserver39BluetoothLowEnergyManagerImplementation14registerDeviceERK20QBluetoothDeviceInfoRKN20QLowEnergyController17RemoteAddressTypeE@Base 0.30.0
 _ZN11nymeaserver39BluetoothLowEnergyManagerImplementation15discoverDevicesEi@Base 0.30.0
 _ZN11nymeaserver39BluetoothLowEnergyManagerImplementation16onDiscoveryErrorERKN30QBluetoothDeviceDiscoveryAgent5ErrorE@Base 0.30.0
 _ZN11nymeaserver39BluetoothLowEnergyManagerImplementation16staticMetaObjectE@Base 0.30.0
 _ZN11nymeaserver39BluetoothLowEnergyManagerImplementation16unregisterDeviceEP24BluetoothLowEnergyDevice@Base 0.30.0
 _ZN11nymeaserver39BluetoothLowEnergyManagerImplementation18onDeviceDiscoveredERK20QBluetoothDeviceInfo@Base 0.30.0
 _ZN11nymeaserver39BluetoothLowEnergyManagerImplementation18onDiscoveryTimeoutEv@Base 0.30.0
 _ZN11nymeaserver39BluetoothLowEnergyManagerImplementation18onReconnectTimeoutEv@Base 0.30.0
 _ZN11nymeaserver39BluetoothLowEnergyManagerImplementation6enableEv@Base 0.30.0
 _ZN11nymeaserver39BluetoothLowEnergyManagerImplementation7disableEv@Base 0.30.0
 _ZN11nymeaserver39BluetoothLowEnergyManagerImplementationC1EP11PluginTimerP7QObject@Base 0.30.0
 _ZN11nymeaserver39BluetoothLowEnergyManagerImplementationC2EP11PluginTimerP7QObject@Base 0.30.0
 _ZN11nymeaserver39ModbusRtuHardwareResourceImplementation10setEnabledEb@Base 0.30.0
 _ZN11nymeaserver39ModbusRtuHardwareResourceImplementation11qt_metacallEN11QMetaObject4CallEiPPv@Base 0.30.0
 _ZN11nymeaserver39ModbusRtuHardwareResourceImplementation11qt_metacastEPKc@Base 0.30.0
 _ZN11nymeaserver39ModbusRtuHardwareResourceImplementation16staticMetaObjectE@Base 0.30.0
 _ZN11nymeaserver39ModbusRtuHardwareResourceImplementation6enableEv@Base 0.30.0
 _ZN11nymeaserver39ModbusRtuHardwareResourceImplementation7disableEv@Base 0.30.0
 _ZN11nymeaserver39ModbusRtuHardwareResourceImplementationC1EPNS_16ModbusRtuManagerEP7QObject@Base 0.30.0
 _ZN11nymeaserver39ModbusRtuHardwareResourceImplementationC2EPNS_16ModbusRtuManagerEP7QObject@Base 0.30.0
 _ZN11nymeaserver3Tag10setThingIdERK7ThingId@Base 0.30.0
 _ZN11nymeaserver3Tag16staticMetaObjectE@Base 0.30.0
 _ZN11nymeaserver3Tag8setAppIdERK7QString@Base 0.30.0
 _ZN11nymeaserver3Tag8setTagIdERK7QString@Base 0.30.0
 _ZN11nymeaserver3Tag8setValueERK7QString@Base 0.30.0
 _ZN11nymeaserver3Tag9setRuleIdERK6RuleId@Base 0.30.0
 _ZN11nymeaserver3TagC1ERK6RuleIdRK7QStringS6_S6_@Base 0.30.0
 _ZN11nymeaserver3TagC1ERK7ThingIdRK7QStringS6_S6_@Base 0.30.0
 _ZN11nymeaserver3TagC1Ev@Base 0.30.0
 _ZN11nymeaserver3TagC2ERK6RuleIdRK7QStringS6_S6_@Base 0.30.0
 _ZN11nymeaserver3TagC2ERK7ThingIdRK7QStringS6_S6_@Base 0.30.0
 _ZN11nymeaserver3TagC2Ev@Base 0.30.0
 _ZN11nymeaserver4Rule10setActionsE11RuleActions@Base 0.30.0
 _ZN11nymeaserver4Rule10setEnabledERKb@Base 0.30.0
 _ZN11nymeaserver4Rule13setExecutableERKb@Base 0.30.0
 _ZN11nymeaserver4Rule13setTimeActiveERKb@Base 0.30.0
 _ZN11nymeaserver4Rule14setExitActionsE11RuleActions@Base 0.30.0
 _ZN11nymeaserver4Rule15setStatesActiveERKb@Base 0.30.0
 _ZN11nymeaserver4Rule16staticMetaObjectE@Base 0.30.0
 _ZN11nymeaserver4Rule17setStateEvaluatorERKNS_14StateEvaluatorE@Base 0.30.0
 _ZN11nymeaserver4Rule17setTimeDescriptorERK14TimeDescriptor@Base 0.30.0
 _ZN11nymeaserver4Rule19setEventDescriptorsERK16EventDescriptors@Base 0.30.0
 _ZN11nymeaserver4Rule5setIdERK6RuleId@Base 0.30.0
 _ZN11nymeaserver4Rule7setNameERK7QString@Base 0.30.0
 _ZN11nymeaserver4Rule9setActiveERKb@Base 0.30.0
 _ZN11nymeaserver4RuleC1Ev@Base 0.30.0
 _ZN11nymeaserver4RuleC2Ev@Base 0.30.0
 _ZN11nymeaserver4Tags16staticMetaObjectE@Base 0.30.0
 _ZN11nymeaserver4Tags3putERK8QVariant@Base 0.30.0
 _ZN11nymeaserver4TagsC1ERK5QListINS_3TagEE@Base 0.30.0
 _ZN11nymeaserver4TagsC1Ev@Base 0.30.0
 _ZN11nymeaserver4TagsC2ERK5QListINS_3TagEE@Base 0.30.0
 _ZN11nymeaserver4TagsC2Ev@Base 0.30.0
 _ZN11nymeaserver5Rules16staticMetaObjectE@Base 0.30.0
 _ZN11nymeaserver5Rules3putERK8QVariant@Base 0.30.0
 _ZN11nymeaserver5RulesC1ERK5QListINS_4RuleEE@Base 0.30.0
 _ZN11nymeaserver5RulesC1Ev@Base 0.30.0
 _ZN11nymeaserver5RulesC2ERK5QListINS_4RuleEE@Base 0.30.0
 _ZN11nymeaserver5RulesC2Ev@Base 0.30.0
 _ZN11nymeaserver6Device11qt_metacallEN11QMetaObject4CallEiPPv@Base 0.30.0
 _ZN11nymeaserver6Device11qt_metacastEPKc@Base 0.30.0
 _ZN11nymeaserver6Device16staticMetaObjectE@Base 0.30.0
 _ZN11nymeaserver6Script16staticMetaObjectE@Base 0.30.0
 _ZN11nymeaserver6Script5setIdERK5QUuid@Base 0.30.0
 _ZN11nymeaserver6Script7setNameERK7QString@Base 0.30.0
 _ZN11nymeaserver6ScriptC1Ev@Base 0.30.0
 _ZN11nymeaserver6ScriptC2Ev@Base 0.30.0
 _ZN11nymeaserver7Devices16staticMetaObjectE@Base 0.30.0
 _ZN11nymeaserver7Logging16staticMetaObjectE@Base 0.30.0
 _ZN11nymeaserver7Scripts16staticMetaObjectE@Base 0.30.0
 _ZN11nymeaserver7Scripts3getEi@Base 0.30.0
 _ZN11nymeaserver7Scripts3putERK8QVariant@Base 0.30.0
 _ZN11nymeaserver7ScriptsC1ERK5QListINS_6ScriptEE@Base 0.30.0
 _ZN11nymeaserver7ScriptsC1Ev@Base 0.30.0
 _ZN11nymeaserver7ScriptsC2ERK5QListINS_6ScriptEE@Base 0.30.0
 _ZN11nymeaserver7ScriptsC2Ev@Base 0.30.0
 _ZN11nymeaserver8LogEntry10setThingIdERK7ThingId@Base 0.30.0
 _ZN11nymeaserver8LogEntry12setEventTypeERKNS_7Logging16LoggingEventTypeE@Base 0.30.0
 _ZN11nymeaserver8LogEntry16staticMetaObjectE@Base 0.30.0
 _ZN11nymeaserver8LogEntry8setValueERK8QVariant@Base 0.30.0
 _ZN11nymeaserver8LogEntry9setActiveEb@Base 0.30.0
 _ZN11nymeaserver8LogEntry9setTypeIdERK5QUuid@Base 0.30.0
 _ZN11nymeaserver8LogEntryC1E9QDateTimeNS_7Logging12LoggingLevelENS2_13LoggingSourceEi@Base 0.30.0
 _ZN11nymeaserver8LogEntryC1ENS_7Logging12LoggingLevelENS1_13LoggingSourceEi@Base 0.30.0
 _ZN11nymeaserver8LogEntryC1ENS_7Logging13LoggingSourceE@Base 0.30.0
 _ZN11nymeaserver8LogEntryC1Ev@Base 0.30.0
 _ZN11nymeaserver8LogEntryC2E9QDateTimeNS_7Logging12LoggingLevelENS2_13LoggingSourceEi@Base 0.30.0
 _ZN11nymeaserver8LogEntryC2ENS_7Logging12LoggingLevelENS1_13LoggingSourceEi@Base 0.30.0
 _ZN11nymeaserver8LogEntryC2ENS_7Logging13LoggingSourceE@Base 0.30.0
 _ZN11nymeaserver8LogEntryC2Ev@Base 0.30.0
 _ZN11nymeaserver8Platform11qt_metacallEN11QMetaObject4CallEiPPv@Base 0.30.0
 _ZN11nymeaserver8Platform11qt_metacastEPKc@Base 0.30.0
 _ZN11nymeaserver8Platform16loadSystemPluginERK7QString@Base 0.30.0
 _ZN11nymeaserver8Platform16loadUpdatePluginERK7QString@Base 0.30.0
 _ZN11nymeaserver8Platform16staticMetaObjectE@Base 0.30.0
 _ZN11nymeaserver8Platform18loadZeroConfPluginERK7QString@Base 0.30.0
 _ZN11nymeaserver8PlatformC1EP7QObject@Base 0.30.0
 _ZN11nymeaserver8PlatformC2EP7QObject@Base 0.30.0
 _ZN11nymeaserver9HttpReply10setPayloadERK10QByteArray@Base 0.30.0
 _ZN11nymeaserver9HttpReply11qt_metacallEN11QMetaObject4CallEiPPv@Base 0.30.0
 _ZN11nymeaserver9HttpReply11qt_metacastEPKc@Base 0.30.0
 _ZN11nymeaserver9HttpReply11setClientIdERK5QUuid@Base 0.30.0
 _ZN11nymeaserver9HttpReply12setRawHeaderE10QByteArrayRKS1_@Base 0.30.0
 _ZN11nymeaserver9HttpReply13getHeaderTypeERKNS0_14HttpHeaderTypeE@Base 0.30.0
 _ZN11nymeaserver9HttpReply16createAsyncReplyEv@Base 0.30.0
 _ZN11nymeaserver9HttpReply16createErrorReplyERKNS0_14HttpStatusCodeE@Base 0.30.0
 _ZN11nymeaserver9HttpReply16staticMetaObjectE@Base 0.30.0
 _ZN11nymeaserver9HttpReply17setHttpStatusCodeERKNS0_14HttpStatusCodeE@Base 0.30.0
 _ZN11nymeaserver9HttpReply18createSuccessReplyEv@Base 0.30.0
 _ZN11nymeaserver9HttpReply18setCloseConnectionERKb@Base 0.30.0
 _ZN11nymeaserver9HttpReply19getHttpReasonPhraseERKNS0_14HttpStatusCodeE@Base 0.30.0
 _ZN11nymeaserver9HttpReply5clearEv@Base 0.30.0
 _ZN11nymeaserver9HttpReply7timeoutEv@Base 0.30.0
 _ZN11nymeaserver9HttpReply8finishedEv@Base 0.30.0
 _ZN11nymeaserver9HttpReply9packReplyEv@Base 0.30.0
 _ZN11nymeaserver9HttpReply9setHeaderERKNS0_14HttpHeaderTypeERK10QByteArray@Base 0.30.0
 _ZN11nymeaserver9HttpReply9startWaitEv@Base 0.30.0
 _ZN11nymeaserver9HttpReplyC1EP7QObject@Base 0.30.0
 _ZN11nymeaserver9HttpReplyC1ERKNS0_14HttpStatusCodeERKNS0_4TypeEP7QObject@Base 0.30.0
 _ZN11nymeaserver9HttpReplyC2EP7QObject@Base 0.30.0
 _ZN11nymeaserver9HttpReplyC2ERKNS0_14HttpStatusCodeERKNS0_4TypeEP7QObject@Base 0.30.0
 _ZN11nymeaserver9LogEngine11checkDBSizeEv@Base 0.30.0
 _ZN11nymeaserver9LogEngine11fetchThingsEv@Base 0.30.0
 _ZN11nymeaserver9LogEngine11qt_metacallEN11QMetaObject4CallEiPPv@Base 0.30.0
 _ZN11nymeaserver9LogEngine11qt_metacastEPKc@Base 0.30.0
 _ZN11nymeaserver9LogEngine12processQueueEv@Base 0.30.0
 _ZN11nymeaserver9LogEngine13clearDatabaseEv@Base 0.30.0
 _ZN11nymeaserver9LogEngine13logEntryAddedERKNS_8LogEntryE@Base 0.30.0
 _ZN11nymeaserver9LogEngine14appendLogEntryERKNS_8LogEntryE@Base 0.30.0
 _ZN11nymeaserver9LogEngine14logSystemEventERK9QDateTimebNS_7Logging12LoggingLevelE@Base 0.30.0
 _ZN11nymeaserver9LogEngine14removeRuleLogsERK6RuleId@Base 0.30.0
 _ZN11nymeaserver9LogEngine15fetchLogEntriesERKNS_9LogFilterE@Base 0.30.0
 _ZN11nymeaserver9LogEngine15removeThingLogsERK7ThingId@Base 0.30.0
 _ZN11nymeaserver9LogEngine15setThingManagerEP12ThingManager@Base 0.30.0
 _ZN11nymeaserver9LogEngine16logBrowserActionERK13BrowserActionNS_7Logging12LoggingLevelEi@Base 0.30.0
 _ZN11nymeaserver9LogEngine16logRuleTriggeredERKNS_4RuleE@Base 0.30.0
 _ZN11nymeaserver9LogEngine16setMaxLogEntriesEii@Base 0.30.0
 _ZN11nymeaserver9LogEngine16staticMetaObjectE@Base 0.30.0
 _ZN11nymeaserver9LogEngine17handleJobFinishedEv@Base 0.30.0
 _ZN11nymeaserver9LogEngine18jobsRunningChangedEv@Base 0.30.0
 _ZN11nymeaserver9LogEngine18logDatabaseUpdatedEv@Base 0.30.0
 _ZN11nymeaserver9LogEngine18migrateEntries3to4Ev@Base 0.30.0
 _ZN11nymeaserver9LogEngine20logBrowserItemActionERK17BrowserItemActionNS_7Logging12LoggingLevelEi@Base 0.30.0
 _ZN11nymeaserver9LogEngine20logRuleActiveChangedERKNS_4RuleE@Base 0.30.0
 _ZN11nymeaserver9LogEngine21finalizeMigration3To4Ev@Base 0.30.0
 _ZN11nymeaserver9LogEngine21logRuleEnabledChangedERKNS_4RuleERKb@Base 0.30.0
 _ZN11nymeaserver9LogEngine22logRuleActionsExecutedERKNS_4RuleE@Base 0.30.0
 _ZN11nymeaserver9LogEngine26logRuleExitActionsExecutedERKNS_4RuleE@Base 0.30.0
 _ZN11nymeaserver9LogEngine26migrateDatabaseVersion3to4Ev@Base 0.30.0
 _ZN11nymeaserver9LogEngine4trimEv@Base 0.30.0
 _ZN11nymeaserver9LogEngine6initDBERK7QStringS3_@Base 0.30.0
 _ZN11nymeaserver9LogEngine6rotateERK7QString@Base 0.30.0
 _ZN11nymeaserver9LogEngine8enqueJobEPNS_11DatabaseJobEb@Base 0.30.0
 _ZN11nymeaserver9LogEngine8logEventERK5Event@Base 0.30.0
 _ZN11nymeaserver9LogEngine9logActionERK6ActionN5Thing10ThingErrorE@Base 0.30.0
 _ZN11nymeaserver9LogEngineC1ERK7QStringS3_S3_S3_S3_iP7QObject@Base 0.30.0
 _ZN11nymeaserver9LogEngineC2ERK7QStringS3_S3_S3_S3_iP7QObject@Base 0.30.0
 _ZN11nymeaserver9LogEngineD0Ev@Base 0.30.0
 _ZN11nymeaserver9LogEngineD1Ev@Base 0.30.0
 _ZN11nymeaserver9LogEngineD2Ev@Base 0.30.0
 _ZN11nymeaserver9LogFilter10addThingIdERK7ThingId@Base 0.30.0
 _ZN11nymeaserver9LogFilter13addTimeFilterERK9QDateTimeS3_@Base 0.30.0
 _ZN11nymeaserver9LogFilter15addLoggingLevelERKNS_7Logging12LoggingLevelE@Base 0.30.0
 _ZN11nymeaserver9LogFilter16addLoggingSourceERKNS_7Logging13LoggingSourceE@Base 0.30.0
 _ZN11nymeaserver9LogFilter19addLoggingEventTypeERKNS_7Logging16LoggingEventTypeE@Base 0.30.0
 _ZN11nymeaserver9LogFilter8addValueERK7QString@Base 0.30.0
 _ZN11nymeaserver9LogFilter8setLimitEi@Base 0.30.0
 _ZN11nymeaserver9LogFilter9addTypeIdERK5QUuid@Base 0.30.0
 _ZN11nymeaserver9LogFilter9setOffsetEi@Base 0.30.0
 _ZN11nymeaserver9LogFilterC1Ev@Base 0.30.0
 _ZN11nymeaserver9LogFilterC2Ev@Base 0.30.0
 _ZN11nymeaserver9NymeaCore10removeRuleERK6RuleId@Base 0.30.0
 _ZN11nymeaserver9NymeaCore10s_instanceE@Base 0.30.0
 _ZN11nymeaserver9NymeaCore10thingAddedEP5Thing@Base 0.30.0
 _ZN11nymeaserver9NymeaCore11initializedEv@Base 0.30.0
 _ZN11nymeaserver9NymeaCore11qt_metacallEN11QMetaObject4CallEiPPv@Base 0.30.0
 _ZN11nymeaserver9NymeaCore11qt_metacastEPKc@Base 0.30.0
 _ZN11nymeaserver9NymeaCore11ruleRemovedERK6RuleId@Base 0.30.0
 _ZN11nymeaserver9NymeaCore12thingChangedEP5Thing@Base 0.30.0
 _ZN11nymeaserver9NymeaCore12thingRemovedERK7ThingId@Base 0.30.0
 _ZN11nymeaserver9NymeaCore14eventTriggeredERK5Event@Base 0.30.0
 _ZN11nymeaserver9NymeaCore14loggingFiltersEv@Base 0.30.0
 _ZN11nymeaserver9NymeaCore16staticMetaObjectE@Base 0.30.0
 _ZN11nymeaserver9NymeaCore17onDateTimeChangedERK9QDateTime@Base 0.30.0
 _ZN11nymeaserver9NymeaCore17ruleActiveChangedERKNS_4RuleE@Base 0.30.0
 _ZN11nymeaserver9NymeaCore17thingStateChangedEP5ThingRK5QUuidRK8QVariantS8_S8_@Base 0.30.0
 _ZN11nymeaserver9NymeaCore18executeBrowserItemERK13BrowserAction@Base 0.30.0
 _ZN11nymeaserver9NymeaCore18executeRuleActionsE5QListI10RuleActionE@Base 0.30.0
 _ZN11nymeaserver9NymeaCore18onThingDisappearedERK7ThingId@Base 0.30.0
 _ZN11nymeaserver9NymeaCore18thingManagerLoadedEv@Base 0.30.0
 _ZN11nymeaserver9NymeaCore19pluginConfigChangedERK8PluginIdRK9ParamList@Base 0.30.0
 _ZN11nymeaserver9NymeaCore19thingSettingChangedERK7ThingIdRK11ParamTypeIdRK8QVariant@Base 0.30.0
 _ZN11nymeaserver9NymeaCore21getAvailableLanguagesEv@Base 0.30.0
 _ZN11nymeaserver9NymeaCore21loggingFiltersPluginsEv@Base 0.30.0
 _ZN11nymeaserver9NymeaCore21removeConfiguredThingERK7ThingIdRK5QHashI6RuleIdNS_10RuleEngine12RemovePolicyEE@Base 0.30.0
 _ZN11nymeaserver9NymeaCore21removeConfiguredThingERK7ThingIdRKNS_10RuleEngine12RemovePolicyE@Base 0.30.0
 _ZN11nymeaserver9NymeaCore24executeBrowserItemActionERK17BrowserItemAction@Base 0.30.0
 _ZN11nymeaserver9NymeaCore24ruleConfigurationChangedERKNS_4RuleE@Base 0.30.0
 _ZN11nymeaserver9NymeaCore4initERK11QStringList@Base 0.30.0
 _ZN11nymeaserver9NymeaCore7destroyEv@Base 0.30.0
 _ZN11nymeaserver9NymeaCore8gotEventERK5Event@Base 0.30.0
 _ZN11nymeaserver9NymeaCore8instanceEv@Base 0.30.0
 _ZN11nymeaserver9NymeaCore9ruleAddedERKNS_4RuleE@Base 0.30.0
 _ZN11nymeaserver9NymeaCoreC1EP7QObject@Base 0.30.0
 _ZN11nymeaserver9NymeaCoreC2EP7QObject@Base 0.30.0
 _ZN11nymeaserver9NymeaCoreD0Ev@Base 0.30.0
 _ZN11nymeaserver9NymeaCoreD1Ev@Base 0.30.0
 _ZN11nymeaserver9NymeaCoreD2Ev@Base 0.30.0
 _ZN11nymeaserver9SslServer11qt_metacallEN11QMetaObject4CallEiPPv@Base 0.30.0
 _ZN11nymeaserver9SslServer11qt_metacastEPKc@Base 0.30.0
 _ZN11nymeaserver9SslServer13dataAvailableEP10QSslSocketRK10QByteArray@Base 0.30.0
 _ZN11nymeaserver9SslServer15clientConnectedEP10QSslSocket@Base 0.30.0
 _ZN11nymeaserver9SslServer16staticMetaObjectE@Base 0.30.0
 _ZN11nymeaserver9SslServer17onSocketReadyReadEv@Base 0.30.0
 _ZN11nymeaserver9SslServer18clientDisconnectedEP10QSslSocket@Base 0.30.0
 _ZN11nymeaserver9SslServer18incomingConnectionEx@Base 0.30.0
 _ZN11nymeaserver9SslServer20onClientDisconnectedEv@Base 0.30.0
 _ZN11nymeaserver9TcpServer10stopServerEv@Base 0.30.0
 _ZN11nymeaserver9TcpServer11qt_metacallEN11QMetaObject4CallEiPPv@Base 0.30.0
 _ZN11nymeaserver9TcpServer11qt_metacastEPKc@Base 0.30.0
 _ZN11nymeaserver9TcpServer11startServerEv@Base 0.30.0
 _ZN11nymeaserver9TcpServer13setServerNameERK7QString@Base 0.30.0
 _ZN11nymeaserver9TcpServer15onDataAvailableEP10QSslSocketRK10QByteArray@Base 0.30.0
 _ZN11nymeaserver9TcpServer16staticMetaObjectE@Base 0.30.0
 _ZN11nymeaserver9TcpServer17onClientConnectedEP10QSslSocket@Base 0.30.0
 _ZN11nymeaserver9TcpServer20onClientDisconnectedEP10QSslSocket@Base 0.30.0
 _ZN11nymeaserver9TcpServer25terminateClientConnectionERK5QUuid@Base 0.30.0
 _ZN11nymeaserver9TcpServer7onErrorEN15QAbstractSocket11SocketErrorE@Base 0.30.0
 _ZN11nymeaserver9TcpServer8sendDataERK5QListI5QUuidERK10QByteArray@Base 0.30.0
 _ZN11nymeaserver9TcpServer8sendDataERK5QUuidRK10QByteArray@Base 0.30.0
 _ZN11nymeaserver9TcpServerC1ERKNS_19ServerConfigurationERK17QSslConfigurationP7QObject@Base 0.30.0
 _ZN11nymeaserver9TcpServerC2ERKNS_19ServerConfigurationERK17QSslConfigurationP7QObject@Base 0.30.0
 _ZN11nymeaserver9TcpServerD0Ev@Base 0.30.0
 _ZN11nymeaserver9TcpServerD1Ev@Base 0.30.0
 _ZN11nymeaserver9TcpServerD2Ev@Base 0.30.0
 _ZN11nymeaserver9TokenInfo16staticMetaObjectE@Base 0.30.0
 _ZN11nymeaserver9TokenInfoC1ERK5QUuidRK7QStringRK9QDateTimeS6_@Base 0.30.0
 _ZN11nymeaserver9TokenInfoC1Ev@Base 0.30.0
 _ZN11nymeaserver9TokenInfoC2ERK5QUuidRK7QStringRK9QDateTimeS6_@Base 0.30.0
 _ZN11nymeaserver9TokenInfoC2Ev@Base 0.30.0
 _ZN11nymeaserver9WebServer10readClientEv@Base 0.30.0
 _ZN11nymeaserver9WebServer10stopServerEv@Base 0.30.0
 _ZN11nymeaserver9WebServer10verifyFileEP10QSslSocketRK7QString@Base 0.30.0
 _ZN11nymeaserver9WebServer11onEncryptedEv@Base 0.30.0
 _ZN11nymeaserver9WebServer11qt_metacallEN11QMetaObject4CallEiPPv@Base 0.30.0
 _ZN11nymeaserver9WebServer11qt_metacastEPKc@Base 0.30.0
 _ZN11nymeaserver9WebServer11startServerEv@Base 0.30.0
 _ZN11nymeaserver9WebServer13sendHttpReplyEPNS_9HttpReplyE@Base 0.30.0
 _ZN11nymeaserver9WebServer13setServerNameERK7QString@Base 0.30.0
 _ZN11nymeaserver9WebServer14onDisconnectedEv@Base 0.30.0
 _ZN11nymeaserver9WebServer15clientConnectedERK5QUuid@Base 0.30.0
 _ZN11nymeaserver9WebServer16httpRequestReadyERK5QUuidRKNS_11HttpRequestE@Base 0.30.0
 _ZN11nymeaserver9WebServer16setConfigurationERKNS_22WebServerConfigurationE@Base 0.30.0
 _ZN11nymeaserver9WebServer16staticMetaObjectE@Base 0.30.0
 _ZN11nymeaserver9WebServer18clientDisconnectedERK5QUuid@Base 0.30.0
 _ZN11nymeaserver9WebServer18incomingConnectionEx@Base 0.30.0
 _ZN11nymeaserver9WebServer18processIconRequestERK7QString@Base 0.30.0
 _ZN11nymeaserver9WebServer20onAsyncReplyFinishedEv@Base 0.30.0
 _ZN11nymeaserver9WebServer23createServerXmlDocumentE12QHostAddress@Base 0.30.0
 _ZN11nymeaserver9WebServer7onErrorEN15QAbstractSocket11SocketErrorE@Base 0.30.0
 _ZN11nymeaserver9WebServer8fileNameERK7QString@Base 0.30.0
 _ZN11nymeaserver9WebServerC1ERKNS_22WebServerConfigurationERK17QSslConfigurationP7QObject@Base 0.30.0
 _ZN11nymeaserver9WebServerC2ERKNS_22WebServerConfigurationERK17QSslConfigurationP7QObject@Base 0.30.0
 _ZN11nymeaserver9WebServerD0Ev@Base 0.30.0
 _ZN11nymeaserver9WebServerD1Ev@Base 0.30.0
 _ZN11nymeaserver9WebServerD2Ev@Base 0.30.0
 _ZN11nymeaserverlsE6QDebugPNS_9HttpReplyE@Base 0.30.0
 _ZN11nymeaserverlsE6QDebugRKNS_11HttpRequestE@Base 0.30.0
 _ZN11nymeaserverlsE6QDebugRKNS_13ZigbeeAdapterE@Base 0.30.0
 _ZN11nymeaserverlsE6QDebugRKNS_14StateEvaluatorE@Base 0.30.0
 _ZN11nymeaserverlsE6QDebugRKNS_19ServerConfigurationE@Base 0.30.0
 _ZN11nymeaserverlsE6QDebugRKNS_3TagE@Base 0.30.0
 _ZN11nymeaserverlsE6QDebugRKNS_4RuleE@Base 0.30.0
 _ZN11nymeaserverlsE6QDebugRKNS_8LogEntryE@Base 0.30.0
 _ZN12AWSConnector10pairDeviceERK7QStringS2_@Base 0.30.0
 _ZN12AWSConnector11connect2AWSERK7QStringS2_S2_S2_S2_S2_@Base 0.30.0
 _ZN12AWSConnector11onConnectedEv@Base 0.30.0
 _ZN12AWSConnector11onPublishedEtRK7QString@Base 0.30.0
 _ZN12AWSConnector11qt_metacallEN11QMetaObject4CallEiPPv@Base 0.30.0
 _ZN12AWSConnector11qt_metacastEPKc@Base 0.30.0
 _ZN12AWSConnector12devicePairedERK7QStringiS2_@Base 0.30.0
 _ZN12AWSConnector12disconnectedEv@Base 0.30.0
 _ZN12AWSConnector12onSubscribedERK7QStringN4Mqtt19SubscribeReturnCodeE@Base 0.30.0
 _ZN12AWSConnector13disconnectAWSEv@Base 0.30.0
 _ZN12AWSConnector13fetchPairingsEv@Base 0.30.0
 _ZN12AWSConnector13setDeviceNameERK7QString@Base 0.30.0
 _ZN12AWSConnector14onDisconnectedEv@Base 0.30.0
 _ZN12AWSConnector14registerDeviceEv@Base 0.30.0
 _ZN12AWSConnector16staticMetaObjectE@Base 0.30.0
 _ZN12AWSConnector17onPublishReceivedERK7QStringRK10QByteArray@Base 0.30.0
 _ZN12AWSConnector18onDeviceRegisteredEb@Base 0.30.0
 _ZN12AWSConnector18setupSubscriptionsEv@Base 0.30.0
 _ZN12AWSConnector19onPairingsRetrievedERK4QMapI7QString8QVariantE@Base 0.30.0
 _ZN12AWSConnector19readSyncedNameCacheEv@Base 0.30.0
 _ZN12AWSConnector19storeRegisteredFlagEb@Base 0.30.0
 _ZN12AWSConnector20storeSyncedNameCacheERK7QString@Base 0.30.0
 _ZN12AWSConnector30proxyConnectionRequestReceivedERK7QStringS2_S2_@Base 0.30.0
 _ZN12AWSConnector7publishERK7QStringRK4QMapIS0_8QVariantE@Base 0.30.0
 _ZN12AWSConnector7setNameEv@Base 0.30.0
 _ZN12AWSConnector9connectedEv@Base 0.30.0
 _ZN12AWSConnector9doConnectEv@Base 0.30.0
 _ZN12AWSConnector9subscribeERK11QStringList@Base 0.30.0
 _ZN12AWSConnectorC1EP7QObject@Base 0.30.0
 _ZN12AWSConnectorC2EP7QObject@Base 0.30.0
 _ZN12AWSConnectorD0Ev@Base 0.30.0
 _ZN12AWSConnectorD1Ev@Base 0.30.0
 _ZN12AWSConnectorD2Ev@Base 0.30.0
 _ZN12LogValueTool11qt_metacallEN11QMetaObject4CallEiPPv@Base 0.30.0
 _ZN12LogValueTool11qt_metacastEPKc@Base 0.30.0
 _ZN12LogValueTool14serializeValueERK8QVariant@Base 0.30.0
 _ZN12LogValueTool16deserializeValueERK7QString@Base 0.30.0
 _ZN12LogValueTool16staticMetaObjectE@Base 0.30.0
 _ZN12LogValueTool22convertVariantToStringERK8QVariant@Base 0.30.0
 _ZN12LogValueToolC1EP7QObject@Base 0.30.0
 _ZN12LogValueToolC2EP7QObject@Base 0.30.0
 _ZN14AppDataHandler11qt_metacallEN11QMetaObject4CallEiPPv@Base 0.30.0
 _ZN14AppDataHandler11qt_metacastEPKc@Base 0.30.0
 _ZN14AppDataHandler16staticMetaObjectE@Base 0.30.0
 _ZN14AppDataHandler4LoadERK4QMapI7QString8QVariantE@Base 0.30.0
 _ZN14AppDataHandler5StoreERK4QMapI7QString8QVariantE@Base 0.30.0
 _ZN14AppDataHandler7ChangedERK4QMapI7QString8QVariantE@Base 0.30.0
 _ZN14AppDataHandlerC1EP7QObject@Base 0.30.0
 _ZN14AppDataHandlerC2EP7QObject@Base 0.30.0
 _ZN15PluginInfoCache14loadPluginInfoERK8PluginId@Base 0.30.0
 _ZN15PluginInfoCache15cachePluginInfoERK11QJsonObject@Base 0.30.0
 _ZN15PluginInfoCacheC1Ev@Base 0.30.0
 _ZN15PluginInfoCacheC2Ev@Base 0.30.0
 _ZN15RuleActionParam12setParamNameERK7QString@Base 0.30.0
 _ZN15RuleActionParam14setEventTypeIdERK11EventTypeId@Base 0.30.0
 _ZN15RuleActionParam14setParamTypeIdERK11ParamTypeId@Base 0.30.0
 _ZN15RuleActionParam14setStateTypeIdERK11StateTypeId@Base 0.30.0
 _ZN15RuleActionParam15setStateThingIdERK7ThingId@Base 0.30.0
 _ZN15RuleActionParam16staticMetaObjectE@Base 0.30.0
 _ZN15RuleActionParam19setEventParamTypeIdERK11ParamTypeId@Base 0.30.0
 _ZN15RuleActionParam8setValueERK8QVariant@Base 0.30.0
 _ZN15RuleActionParamC1ERK11ParamTypeIdRK11EventTypeIdS2_@Base 0.30.0
 _ZN15RuleActionParamC1ERK11ParamTypeIdRK7ThingIdRK11StateTypeId@Base 0.30.0
 _ZN15RuleActionParamC1ERK11ParamTypeIdRK8QVariant@Base 0.30.0
 _ZN15RuleActionParamC1ERK5Param@Base 0.30.0
 _ZN15RuleActionParamC1ERK7QStringRK11EventTypeIdRK11ParamTypeId@Base 0.30.0
 _ZN15RuleActionParamC1ERK7QStringRK7ThingIdRK11StateTypeId@Base 0.30.0
 _ZN15RuleActionParamC1ERK7QStringRK8QVariant@Base 0.30.0
 _ZN15RuleActionParamC2ERK11ParamTypeIdRK11EventTypeIdS2_@Base 0.30.0
 _ZN15RuleActionParamC2ERK11ParamTypeIdRK7ThingIdRK11StateTypeId@Base 0.30.0
 _ZN15RuleActionParamC2ERK11ParamTypeIdRK8QVariant@Base 0.30.0
 _ZN15RuleActionParamC2ERK5Param@Base 0.30.0
 _ZN15RuleActionParamC2ERK7QStringRK11EventTypeIdRK11ParamTypeId@Base 0.30.0
 _ZN15RuleActionParamC2ERK7QStringRK7ThingIdRK11StateTypeId@Base 0.30.0
 _ZN15RuleActionParamC2ERK7QStringRK8QVariant@Base 0.30.0
 _ZN16RuleActionParams13setParamValueERK11ParamTypeIdRK8QVariant@Base 0.30.0
 _ZN16RuleActionParams16staticMetaObjectE@Base 0.30.0
 _ZN16RuleActionParams3putERK8QVariant@Base 0.30.0
 _ZN16RuleActionParamslsERK15RuleActionParam@Base 0.30.0
 _ZN17QtMetaTypePrivate19IteratorOwnerCommonIN5QListIiE14const_iteratorEE5equalEPKPvS7_@Base 0.30.0
 _ZN17QtMetaTypePrivate19IteratorOwnerCommonIN5QListIiE14const_iteratorEE6assignEPPvPKS5_@Base 0.30.0
 _ZN17QtMetaTypePrivate19IteratorOwnerCommonIN5QListIiE14const_iteratorEE7advanceEPPvi@Base 0.30.0
 _ZN17QtMetaTypePrivate19IteratorOwnerCommonIN5QListIiE14const_iteratorEE7destroyEPPv@Base 0.30.0
 _ZN17QtMetaTypePrivate23QMetaTypeFunctionHelperI10ActionTypeLb1EE8DestructEPv@Base 0.30.0
 _ZN17QtMetaTypePrivate23QMetaTypeFunctionHelperI10ActionTypeLb1EE9ConstructEPvPKv@Base 0.30.0
 _ZN17QtMetaTypePrivate23QMetaTypeFunctionHelperI10EventTypesLb1EE8DestructEPv@Base 0.30.0
 _ZN17QtMetaTypePrivate23QMetaTypeFunctionHelperI10EventTypesLb1EE9ConstructEPvPKv@Base 0.30.0
 _ZN17QtMetaTypePrivate23QMetaTypeFunctionHelperI10ParamTypesLb1EE8DestructEPv@Base 0.30.0
 _ZN17QtMetaTypePrivate23QMetaTypeFunctionHelperI10ParamTypesLb1EE9ConstructEPvPKv@Base 0.30.0
 _ZN17QtMetaTypePrivate23QMetaTypeFunctionHelperI10RepositoryLb1EE8DestructEPv@Base 0.30.0
 _ZN17QtMetaTypePrivate23QMetaTypeFunctionHelperI10RepositoryLb1EE9ConstructEPvPKv@Base 0.30.0
 _ZN17QtMetaTypePrivate23QMetaTypeFunctionHelperI10RuleActionLb1EE8DestructEPv@Base 0.30.0
 _ZN17QtMetaTypePrivate23QMetaTypeFunctionHelperI10RuleActionLb1EE9ConstructEPvPKv@Base 0.30.0
 _ZN17QtMetaTypePrivate23QMetaTypeFunctionHelperI10StateTypesLb1EE8DestructEPv@Base 0.30.0
 _ZN17QtMetaTypePrivate23QMetaTypeFunctionHelperI10StateTypesLb1EE9ConstructEPvPKv@Base 0.30.0
 _ZN17QtMetaTypePrivate23QMetaTypeFunctionHelperI10ThingClassLb1EE8DestructEPv@Base 0.30.0
 _ZN17QtMetaTypePrivate23QMetaTypeFunctionHelperI10ThingClassLb1EE9ConstructEPvPKv@Base 0.30.0
 _ZN17QtMetaTypePrivate23QMetaTypeFunctionHelperI11ActionTypesLb1EE8DestructEPv@Base 0.30.0
 _ZN17QtMetaTypePrivate23QMetaTypeFunctionHelperI11ActionTypesLb1EE9ConstructEPvPKv@Base 0.30.0
 _ZN17QtMetaTypePrivate23QMetaTypeFunctionHelperI11ParamTypeIdLb1EE8DestructEPv@Base 0.30.0
 _ZN17QtMetaTypePrivate23QMetaTypeFunctionHelperI11ParamTypeIdLb1EE9ConstructEPvPKv@Base 0.30.0
 _ZN17QtMetaTypePrivate23QMetaTypeFunctionHelperI11RuleActionsLb1EE8DestructEPv@Base 0.30.0
 _ZN17QtMetaTypePrivate23QMetaTypeFunctionHelperI11RuleActionsLb1EE9ConstructEPvPKv@Base 0.30.0
 _ZN17QtMetaTypePrivate23QMetaTypeFunctionHelperI11StateTypeIdLb1EE8DestructEPv@Base 0.30.0
 _ZN17QtMetaTypePrivate23QMetaTypeFunctionHelperI11StateTypeIdLb1EE9ConstructEPvPKv@Base 0.30.0
 _ZN17QtMetaTypePrivate23QMetaTypeFunctionHelperI12CalendarItemLb1EE8DestructEPv@Base 0.30.0
 _ZN17QtMetaTypePrivate23QMetaTypeFunctionHelperI12CalendarItemLb1EE9ConstructEPvPKv@Base 0.30.0
 _ZN17QtMetaTypePrivate23QMetaTypeFunctionHelperI12IOConnectionLb1EE8DestructEPv@Base 0.30.0
 _ZN17QtMetaTypePrivate23QMetaTypeFunctionHelperI12IOConnectionLb1EE9ConstructEPvPKv@Base 0.30.0
 _ZN17QtMetaTypePrivate23QMetaTypeFunctionHelperI12RepositoriesLb1EE8DestructEPv@Base 0.30.0
 _ZN17QtMetaTypePrivate23QMetaTypeFunctionHelperI12RepositoriesLb1EE9ConstructEPvPKv@Base 0.30.0
 _ZN17QtMetaTypePrivate23QMetaTypeFunctionHelperI12ThingClassesLb1EE8DestructEPv@Base 0.30.0
 _ZN17QtMetaTypePrivate23QMetaTypeFunctionHelperI12ThingClassesLb1EE9ConstructEPvPKv@Base 0.30.0
 _ZN17QtMetaTypePrivate23QMetaTypeFunctionHelperI13CalendarItemsLb1EE8DestructEPv@Base 0.30.0
 _ZN17QtMetaTypePrivate23QMetaTypeFunctionHelperI13CalendarItemsLb1EE9ConstructEPvPKv@Base 0.30.0
 _ZN17QtMetaTypePrivate23QMetaTypeFunctionHelperI13IOConnectionsLb1EE8DestructEPv@Base 0.30.0
 _ZN17QtMetaTypePrivate23QMetaTypeFunctionHelperI13IOConnectionsLb1EE9ConstructEPvPKv@Base 0.30.0
 _ZN17QtMetaTypePrivate23QMetaTypeFunctionHelperI13TimeEventItemLb1EE8DestructEPv@Base 0.30.0
 _ZN17QtMetaTypePrivate23QMetaTypeFunctionHelperI13TimeEventItemLb1EE9ConstructEPvPKv@Base 0.30.0
 _ZN17QtMetaTypePrivate23QMetaTypeFunctionHelperI14QBluetoothUuidLb1EE8DestructEPv@Base 0.30.0
 _ZN17QtMetaTypePrivate23QMetaTypeFunctionHelperI14QBluetoothUuidLb1EE9ConstructEPvPKv@Base 0.30.0
 _ZN17QtMetaTypePrivate23QMetaTypeFunctionHelperI14TimeDescriptorLb1EE8DestructEPv@Base 0.30.0
 _ZN17QtMetaTypePrivate23QMetaTypeFunctionHelperI14TimeDescriptorLb1EE9ConstructEPvPKv@Base 0.30.0
 _ZN17QtMetaTypePrivate23QMetaTypeFunctionHelperI14TimeEventItemsLb1EE8DestructEPv@Base 0.30.0
 _ZN17QtMetaTypePrivate23QMetaTypeFunctionHelperI14TimeEventItemsLb1EE9ConstructEPvPKv@Base 0.30.0
 _ZN17QtMetaTypePrivate23QMetaTypeFunctionHelperI15EventDescriptorLb1EE8DestructEPv@Base 0.30.0
 _ZN17QtMetaTypePrivate23QMetaTypeFunctionHelperI15EventDescriptorLb1EE9ConstructEPvPKv@Base 0.30.0
 _ZN17QtMetaTypePrivate23QMetaTypeFunctionHelperI15ParamDescriptorLb1EE8DestructEPv@Base 0.30.0
 _ZN17QtMetaTypePrivate23QMetaTypeFunctionHelperI15ParamDescriptorLb1EE9ConstructEPvPKv@Base 0.30.0
 _ZN17QtMetaTypePrivate23QMetaTypeFunctionHelperI15QDBusObjectPathLb1EE8DestructEPv@Base 0.30.0
 _ZN17QtMetaTypePrivate23QMetaTypeFunctionHelperI15QDBusObjectPathLb1EE9ConstructEPvPKv@Base 0.30.0
 _ZN17QtMetaTypePrivate23QMetaTypeFunctionHelperI15RepeatingOptionLb1EE8DestructEPv@Base 0.30.0
 _ZN17QtMetaTypePrivate23QMetaTypeFunctionHelperI15RepeatingOptionLb1EE9ConstructEPvPKv@Base 0.30.0
 _ZN17QtMetaTypePrivate23QMetaTypeFunctionHelperI15RuleActionParamLb1EE8DestructEPv@Base 0.30.0
 _ZN17QtMetaTypePrivate23QMetaTypeFunctionHelperI15RuleActionParamLb1EE9ConstructEPvPKv@Base 0.30.0
 _ZN17QtMetaTypePrivate23QMetaTypeFunctionHelperI15StateDescriptorLb1EE8DestructEPv@Base 0.30.0
 _ZN17QtMetaTypePrivate23QMetaTypeFunctionHelperI15StateDescriptorLb1EE9ConstructEPvPKv@Base 0.30.0
 _ZN17QtMetaTypePrivate23QMetaTypeFunctionHelperI15ThingDescriptorLb1EE8DestructEPv@Base 0.30.0
 _ZN17QtMetaTypePrivate23QMetaTypeFunctionHelperI15ThingDescriptorLb1EE9ConstructEPvPKv@Base 0.30.0
 _ZN17QtMetaTypePrivate23QMetaTypeFunctionHelperI16EventDescriptorsLb1EE8DestructEPv@Base 0.30.0
 _ZN17QtMetaTypePrivate23QMetaTypeFunctionHelperI16EventDescriptorsLb1EE9ConstructEPvPKv@Base 0.30.0
 _ZN17QtMetaTypePrivate23QMetaTypeFunctionHelperI16ParamDescriptorsLb1EE8DestructEPv@Base 0.30.0
 _ZN17QtMetaTypePrivate23QMetaTypeFunctionHelperI16ParamDescriptorsLb1EE9ConstructEPvPKv@Base 0.30.0
 _ZN17QtMetaTypePrivate23QMetaTypeFunctionHelperI16QQmlListPropertyI11PluginTimerELb1EE8DestructEPv@Base 0.30.0
 _ZN17QtMetaTypePrivate23QMetaTypeFunctionHelperI16QQmlListPropertyI11PluginTimerELb1EE9ConstructEPvPKv@Base 0.30.0
 _ZN17QtMetaTypePrivate23QMetaTypeFunctionHelperI16QQmlListPropertyI11ScriptAlarmELb1EE8DestructEPv@Base 0.30.0
 _ZN17QtMetaTypePrivate23QMetaTypeFunctionHelperI16QQmlListPropertyI11ScriptAlarmELb1EE9ConstructEPvPKv@Base 0.30.0
 _ZN17QtMetaTypePrivate23QMetaTypeFunctionHelperI16QQmlListPropertyI18PluginTimerManagerELb1EE8DestructEPv@Base 0.30.0
 _ZN17QtMetaTypePrivate23QMetaTypeFunctionHelperI16QQmlListPropertyI18PluginTimerManagerELb1EE9ConstructEPvPKv@Base 0.30.0
 _ZN17QtMetaTypePrivate23QMetaTypeFunctionHelperI16QQmlListPropertyIN11nymeaserver11ScriptEventEELb1EE8DestructEPv@Base 0.30.0
 _ZN17QtMetaTypePrivate23QMetaTypeFunctionHelperI16QQmlListPropertyIN11nymeaserver11ScriptEventEELb1EE9ConstructEPvPKv@Base 0.30.0
 _ZN17QtMetaTypePrivate23QMetaTypeFunctionHelperI16QQmlListPropertyIN11nymeaserver11ScriptStateEELb1EE8DestructEPv@Base 0.30.0
 _ZN17QtMetaTypePrivate23QMetaTypeFunctionHelperI16QQmlListPropertyIN11nymeaserver11ScriptStateEELb1EE9ConstructEPvPKv@Base 0.30.0
 _ZN17QtMetaTypePrivate23QMetaTypeFunctionHelperI16QQmlListPropertyIN11nymeaserver12ScriptActionEELb1EE8DestructEPv@Base 0.30.0
 _ZN17QtMetaTypePrivate23QMetaTypeFunctionHelperI16QQmlListPropertyIN11nymeaserver12ScriptActionEELb1EE9ConstructEPvPKv@Base 0.30.0
 _ZN17QtMetaTypePrivate23QMetaTypeFunctionHelperI16QQmlListPropertyIN11nymeaserver20ScriptInterfaceEventEELb1EE8DestructEPv@Base 0.30.0
 _ZN17QtMetaTypePrivate23QMetaTypeFunctionHelperI16QQmlListPropertyIN11nymeaserver20ScriptInterfaceEventEELb1EE9ConstructEPvPKv@Base 0.30.0
 _ZN17QtMetaTypePrivate23QMetaTypeFunctionHelperI16QQmlListPropertyIN11nymeaserver21ScriptInterfaceActionEELb1EE8DestructEPv@Base 0.30.0
 _ZN17QtMetaTypePrivate23QMetaTypeFunctionHelperI16QQmlListPropertyIN11nymeaserver21ScriptInterfaceActionEELb1EE9ConstructEPvPKv@Base 0.30.0
 _ZN17QtMetaTypePrivate23QMetaTypeFunctionHelperI16RuleActionParamsLb1EE8DestructEPv@Base 0.30.0
 _ZN17QtMetaTypePrivate23QMetaTypeFunctionHelperI16RuleActionParamsLb1EE9ConstructEPvPKv@Base 0.30.0
 _ZN17QtMetaTypePrivate23QMetaTypeFunctionHelperI16ThingDescriptorsLb1EE8DestructEPv@Base 0.30.0
 _ZN17QtMetaTypePrivate23QMetaTypeFunctionHelperI16ThingDescriptorsLb1EE9ConstructEPvPKv@Base 0.30.0
 _ZN17QtMetaTypePrivate23QMetaTypeFunctionHelperI20QBluetoothDeviceInfoLb1EE8DestructEPv@Base 0.30.0
 _ZN17QtMetaTypePrivate23QMetaTypeFunctionHelperI20QBluetoothDeviceInfoLb1EE9ConstructEPvPKv@Base 0.30.0
 _ZN17QtMetaTypePrivate23QMetaTypeFunctionHelperI5EventLb1EE8DestructEPv@Base 0.30.0
 _ZN17QtMetaTypePrivate23QMetaTypeFunctionHelperI5EventLb1EE9ConstructEPvPKv@Base 0.30.0
 _ZN17QtMetaTypePrivate23QMetaTypeFunctionHelperI5ParamLb1EE8DestructEPv@Base 0.30.0
 _ZN17QtMetaTypePrivate23QMetaTypeFunctionHelperI5ParamLb1EE9ConstructEPvPKv@Base 0.30.0
 _ZN17QtMetaTypePrivate23QMetaTypeFunctionHelperI5QListIiELb1EE8DestructEPv@Base 0.30.0
 _ZN17QtMetaTypePrivate23QMetaTypeFunctionHelperI5QListIiELb1EE9ConstructEPvPKv@Base 0.30.0
 _ZN17QtMetaTypePrivate23QMetaTypeFunctionHelperI5StateLb1EE8DestructEPv@Base 0.30.0
 _ZN17QtMetaTypePrivate23QMetaTypeFunctionHelperI5StateLb1EE9ConstructEPvPKv@Base 0.30.0
 _ZN17QtMetaTypePrivate23QMetaTypeFunctionHelperI6ActionLb1EE8DestructEPv@Base 0.30.0
 _ZN17QtMetaTypePrivate23QMetaTypeFunctionHelperI6ActionLb1EE9ConstructEPvPKv@Base 0.30.0
 _ZN17QtMetaTypePrivate23QMetaTypeFunctionHelperI6RuleIdLb1EE8DestructEPv@Base 0.30.0
 _ZN17QtMetaTypePrivate23QMetaTypeFunctionHelperI6RuleIdLb1EE9ConstructEPvPKv@Base 0.30.0
 _ZN17QtMetaTypePrivate23QMetaTypeFunctionHelperI6StatesLb1EE8DestructEPv@Base 0.30.0
 _ZN17QtMetaTypePrivate23QMetaTypeFunctionHelperI6StatesLb1EE9ConstructEPvPKv@Base 0.30.0
 _ZN17QtMetaTypePrivate23QMetaTypeFunctionHelperI6VendorLb1EE8DestructEPv@Base 0.30.0
 _ZN17QtMetaTypePrivate23QMetaTypeFunctionHelperI6VendorLb1EE9ConstructEPvPKv@Base 0.30.0
 _ZN17QtMetaTypePrivate23QMetaTypeFunctionHelperI7PackageLb1EE8DestructEPv@Base 0.30.0
 _ZN17QtMetaTypePrivate23QMetaTypeFunctionHelperI7PackageLb1EE9ConstructEPvPKv@Base 0.30.0
 _ZN17QtMetaTypePrivate23QMetaTypeFunctionHelperI7ThingIdLb1EE8DestructEPv@Base 0.30.0
 _ZN17QtMetaTypePrivate23QMetaTypeFunctionHelperI7ThingIdLb1EE9ConstructEPvPKv@Base 0.30.0
 _ZN17QtMetaTypePrivate23QMetaTypeFunctionHelperI7VendorsLb1EE8DestructEPv@Base 0.30.0
 _ZN17QtMetaTypePrivate23QMetaTypeFunctionHelperI7VendorsLb1EE9ConstructEPvPKv@Base 0.30.0
 _ZN17QtMetaTypePrivate23QMetaTypeFunctionHelperI8PackagesLb1EE8DestructEPv@Base 0.30.0
 _ZN17QtMetaTypePrivate23QMetaTypeFunctionHelperI8PackagesLb1EE9ConstructEPvPKv@Base 0.30.0
 _ZN17QtMetaTypePrivate23QMetaTypeFunctionHelperI8PluginIdLb1EE8DestructEPv@Base 0.30.0
 _ZN17QtMetaTypePrivate23QMetaTypeFunctionHelperI8PluginIdLb1EE9ConstructEPvPKv@Base 0.30.0
 _ZN17QtMetaTypePrivate23QMetaTypeFunctionHelperI8UserInfoLb1EE8DestructEPv@Base 0.30.0
 _ZN17QtMetaTypePrivate23QMetaTypeFunctionHelperI8UserInfoLb1EE9ConstructEPvPKv@Base 0.30.0
 _ZN17QtMetaTypePrivate23QMetaTypeFunctionHelperI9EventTypeLb1EE8DestructEPv@Base 0.30.0
 _ZN17QtMetaTypePrivate23QMetaTypeFunctionHelperI9EventTypeLb1EE9ConstructEPvPKv@Base 0.30.0
 _ZN17QtMetaTypePrivate23QMetaTypeFunctionHelperI9ParamListLb1EE8DestructEPv@Base 0.30.0
 _ZN17QtMetaTypePrivate23QMetaTypeFunctionHelperI9ParamListLb1EE9ConstructEPvPKv@Base 0.30.0
 _ZN17QtMetaTypePrivate23QMetaTypeFunctionHelperI9ParamTypeLb1EE8DestructEPv@Base 0.30.0
 _ZN17QtMetaTypePrivate23QMetaTypeFunctionHelperI9ParamTypeLb1EE9ConstructEPvPKv@Base 0.30.0
 _ZN17QtMetaTypePrivate23QMetaTypeFunctionHelperI9StateTypeLb1EE8DestructEPv@Base 0.30.0
 _ZN17QtMetaTypePrivate23QMetaTypeFunctionHelperI9StateTypeLb1EE9ConstructEPvPKv@Base 0.30.0
 _ZN17QtMetaTypePrivate23QMetaTypeFunctionHelperIN11nymeaserver10LogEntriesELb1EE8DestructEPv@Base 0.30.0
 _ZN17QtMetaTypePrivate23QMetaTypeFunctionHelperIN11nymeaserver10LogEntriesELb1EE9ConstructEPvPKv@Base 0.30.0
 _ZN17QtMetaTypePrivate23QMetaTypeFunctionHelperIN11nymeaserver10MqttPolicyELb1EE8DestructEPv@Base 0.30.0
 _ZN17QtMetaTypePrivate23QMetaTypeFunctionHelperIN11nymeaserver10MqttPolicyELb1EE9ConstructEPvPKv@Base 0.30.0
 _ZN17QtMetaTypePrivate23QMetaTypeFunctionHelperIN11nymeaserver10SerialPortELb1EE8DestructEPv@Base 0.30.0
 _ZN17QtMetaTypePrivate23QMetaTypeFunctionHelperIN11nymeaserver10SerialPortELb1EE9ConstructEPvPKv@Base 0.30.0
 _ZN17QtMetaTypePrivate23QMetaTypeFunctionHelperIN11nymeaserver11DeviceClassELb1EE8DestructEPv@Base 0.30.0
 _ZN17QtMetaTypePrivate23QMetaTypeFunctionHelperIN11nymeaserver11DeviceClassELb1EE9ConstructEPvPKv@Base 0.30.0
 _ZN17QtMetaTypePrivate23QMetaTypeFunctionHelperIN11nymeaserver11SerialPortsELb1EE8DestructEPv@Base 0.30.0
 _ZN17QtMetaTypePrivate23QMetaTypeFunctionHelperIN11nymeaserver11SerialPortsELb1EE9ConstructEPvPKv@Base 0.30.0
 _ZN17QtMetaTypePrivate23QMetaTypeFunctionHelperIN11nymeaserver13DeviceClassesELb1EE8DestructEPv@Base 0.30.0
 _ZN17QtMetaTypePrivate23QMetaTypeFunctionHelperIN11nymeaserver13DeviceClassesELb1EE9ConstructEPvPKv@Base 0.30.0
 _ZN17QtMetaTypePrivate23QMetaTypeFunctionHelperIN11nymeaserver13TokenInfoListELb1EE8DestructEPv@Base 0.30.0
 _ZN17QtMetaTypePrivate23QMetaTypeFunctionHelperIN11nymeaserver13TokenInfoListELb1EE9ConstructEPvPKv@Base 0.30.0
 _ZN17QtMetaTypePrivate23QMetaTypeFunctionHelperIN11nymeaserver13ZigbeeAdapterELb1EE8DestructEPv@Base 0.30.0
 _ZN17QtMetaTypePrivate23QMetaTypeFunctionHelperIN11nymeaserver13ZigbeeAdapterELb1EE9ConstructEPvPKv@Base 0.30.0
 _ZN17QtMetaTypePrivate23QMetaTypeFunctionHelperIN11nymeaserver14StateEvaluatorELb1EE8DestructEPv@Base 0.30.0
 _ZN17QtMetaTypePrivate23QMetaTypeFunctionHelperIN11nymeaserver14StateEvaluatorELb1EE9ConstructEPvPKv@Base 0.30.0
 _ZN17QtMetaTypePrivate23QMetaTypeFunctionHelperIN11nymeaserver14ZigbeeAdaptersELb1EE8DestructEPv@Base 0.30.0
 _ZN17QtMetaTypePrivate23QMetaTypeFunctionHelperIN11nymeaserver14ZigbeeAdaptersELb1EE9ConstructEPvPKv@Base 0.30.0
 _ZN17QtMetaTypePrivate23QMetaTypeFunctionHelperIN11nymeaserver15StateEvaluatorsELb1EE8DestructEPv@Base 0.30.0
 _ZN17QtMetaTypePrivate23QMetaTypeFunctionHelperIN11nymeaserver15StateEvaluatorsELb1EE9ConstructEPvPKv@Base 0.30.0
 _ZN17QtMetaTypePrivate23QMetaTypeFunctionHelperIN11nymeaserver16DeviceDescriptorELb1EE8DestructEPv@Base 0.30.0
 _ZN17QtMetaTypePrivate23QMetaTypeFunctionHelperIN11nymeaserver16DeviceDescriptorELb1EE9ConstructEPvPKv@Base 0.30.0
 _ZN17QtMetaTypePrivate23QMetaTypeFunctionHelperIN11nymeaserver17DeviceDescriptorsELb1EE8DestructEPv@Base 0.30.0
 _ZN17QtMetaTypePrivate23QMetaTypeFunctionHelperIN11nymeaserver17DeviceDescriptorsELb1EE9ConstructEPvPKv@Base 0.30.0
 _ZN17QtMetaTypePrivate23QMetaTypeFunctionHelperIN11nymeaserver19ServerConfigurationELb1EE8DestructEPv@Base 0.30.0
 _ZN17QtMetaTypePrivate23QMetaTypeFunctionHelperIN11nymeaserver19ServerConfigurationELb1EE9ConstructEPvPKv@Base 0.30.0
 _ZN17QtMetaTypePrivate23QMetaTypeFunctionHelperIN11nymeaserver22WebServerConfigurationELb1EE8DestructEPv@Base 0.30.0
 _ZN17QtMetaTypePrivate23QMetaTypeFunctionHelperIN11nymeaserver22WebServerConfigurationELb1EE9ConstructEPvPKv@Base 0.30.0
 _ZN17QtMetaTypePrivate23QMetaTypeFunctionHelperIN11nymeaserver3TagELb1EE8DestructEPv@Base 0.30.0
 _ZN17QtMetaTypePrivate23QMetaTypeFunctionHelperIN11nymeaserver3TagELb1EE9ConstructEPvPKv@Base 0.30.0
 _ZN17QtMetaTypePrivate23QMetaTypeFunctionHelperIN11nymeaserver4RuleELb1EE8DestructEPv@Base 0.30.0
 _ZN17QtMetaTypePrivate23QMetaTypeFunctionHelperIN11nymeaserver4RuleELb1EE9ConstructEPvPKv@Base 0.30.0
 _ZN17QtMetaTypePrivate23QMetaTypeFunctionHelperIN11nymeaserver4TagsELb1EE8DestructEPv@Base 0.30.0
 _ZN17QtMetaTypePrivate23QMetaTypeFunctionHelperIN11nymeaserver4TagsELb1EE9ConstructEPvPKv@Base 0.30.0
 _ZN17QtMetaTypePrivate23QMetaTypeFunctionHelperIN11nymeaserver5RulesELb1EE8DestructEPv@Base 0.30.0
 _ZN17QtMetaTypePrivate23QMetaTypeFunctionHelperIN11nymeaserver5RulesELb1EE9ConstructEPvPKv@Base 0.30.0
 _ZN17QtMetaTypePrivate23QMetaTypeFunctionHelperIN11nymeaserver6ScriptELb1EE8DestructEPv@Base 0.30.0
 _ZN17QtMetaTypePrivate23QMetaTypeFunctionHelperIN11nymeaserver6ScriptELb1EE9ConstructEPvPKv@Base 0.30.0
 _ZN17QtMetaTypePrivate23QMetaTypeFunctionHelperIN11nymeaserver7ScriptsELb1EE8DestructEPv@Base 0.30.0
 _ZN17QtMetaTypePrivate23QMetaTypeFunctionHelperIN11nymeaserver7ScriptsELb1EE9ConstructEPvPKv@Base 0.30.0
 _ZN17QtMetaTypePrivate23QMetaTypeFunctionHelperIN11nymeaserver8LogEntryELb1EE8DestructEPv@Base 0.30.0
 _ZN17QtMetaTypePrivate23QMetaTypeFunctionHelperIN11nymeaserver8LogEntryELb1EE9ConstructEPvPKv@Base 0.30.0
 _ZN17QtMetaTypePrivate23QMetaTypeFunctionHelperIN11nymeaserver9TokenInfoELb1EE8DestructEPv@Base 0.30.0
 _ZN17QtMetaTypePrivate23QMetaTypeFunctionHelperIN11nymeaserver9TokenInfoELb1EE9ConstructEPvPKv@Base 0.30.0
 _ZN17QtMetaTypePrivate23QMetaTypeFunctionHelperIN15QAbstractSocket11SocketErrorELb1EE8DestructEPv@Base 0.30.0
 _ZN17QtMetaTypePrivate23QMetaTypeFunctionHelperIN15QAbstractSocket11SocketErrorELb1EE9ConstructEPvPKv@Base 0.30.0
 _ZN17QtMetaTypePrivate23QMetaTypeFunctionHelperIN17remoteproxyclient21RemoteProxyConnection5StateELb1EE8DestructEPv@Base 0.30.0
 _ZN17QtMetaTypePrivate23QMetaTypeFunctionHelperIN17remoteproxyclient21RemoteProxyConnection5StateELb1EE9ConstructEPvPKv@Base 0.30.0
 _ZN17QtMetaTypePrivate23QMetaTypeFunctionHelperIN20QLowEnergyController15ControllerStateELb1EE8DestructEPv@Base 0.30.0
 _ZN17QtMetaTypePrivate23QMetaTypeFunctionHelperIN20QLowEnergyController15ControllerStateELb1EE9ConstructEPvPKv@Base 0.30.0
 _ZN17QtMetaTypePrivate23QMetaTypeFunctionHelperIN20QLowEnergyController5ErrorELb1EE8DestructEPv@Base 0.30.0
 _ZN17QtMetaTypePrivate23QMetaTypeFunctionHelperIN20QLowEnergyController5ErrorELb1EE9ConstructEPvPKv@Base 0.30.0
 _ZN17QtMetaTypePrivate23QMetaTypeFunctionHelperIN21QBluetoothLocalDevice8HostModeELb1EE8DestructEPv@Base 0.30.0
 _ZN17QtMetaTypePrivate23QMetaTypeFunctionHelperIN21QBluetoothLocalDevice8HostModeELb1EE9ConstructEPvPKv@Base 0.30.0
 _ZN17QtMetaTypePrivate23QMetaTypeFunctionHelperIN21QBluetoothServiceInfo8SequenceELb1EE8DestructEPv@Base 0.30.0
 _ZN17QtMetaTypePrivate23QMetaTypeFunctionHelperIN21QBluetoothServiceInfo8SequenceELb1EE9ConstructEPvPKv@Base 0.30.0
 _ZN17QtMetaTypePrivate23QMetaTypeFunctionHelperIN4Mqtt19SubscribeReturnCodeELb1EE8DestructEPv@Base 0.30.0
 _ZN17QtMetaTypePrivate23QMetaTypeFunctionHelperIN4Mqtt19SubscribeReturnCodeELb1EE9ConstructEPvPKv@Base 0.30.0
 _ZN17QtMetaTypePrivate23QMetaTypeFunctionHelperIN4Mqtt3QoSELb1EE8DestructEPv@Base 0.30.0
 _ZN17QtMetaTypePrivate23QMetaTypeFunctionHelperIN4Mqtt3QoSELb1EE9ConstructEPvPKv@Base 0.30.0
 _ZN17QtMetaTypePrivate23QMetaTypeFunctionHelperIN5Thing10ThingErrorELb1EE8DestructEPv@Base 0.30.0
 _ZN17QtMetaTypePrivate23QMetaTypeFunctionHelperIN5Thing10ThingErrorELb1EE9ConstructEPvPKv@Base 0.30.0
 _ZN17QtMetaTypePrivate23QMetaTypeFunctionHelperIN5Types13StateOperatorELb1EE8DestructEPv@Base 0.30.0
 _ZN17QtMetaTypePrivate23QMetaTypeFunctionHelperIN5Types13StateOperatorELb1EE9ConstructEPvPKv@Base 0.30.0
 _ZN17QtMetaTypePrivate23QMetaTypeFunctionHelperINS_23QSequentialIterableImplELb1EE8DestructEPv@Base 0.30.0
 _ZN17QtMetaTypePrivate23QMetaTypeFunctionHelperINS_23QSequentialIterableImplELb1EE9ConstructEPvPKv@Base 0.30.0
 _ZN17QtMetaTypePrivate23QMetaTypeFunctionHelperIP10QSslSocketLb1EE8DestructEPv@Base 0.30.0
 _ZN17QtMetaTypePrivate23QMetaTypeFunctionHelperIP10QSslSocketLb1EE9ConstructEPvPKv@Base 0.30.0
 _ZN17QtMetaTypePrivate23QMetaTypeFunctionHelperIP10ZigbeeNodeLb1EE8DestructEPv@Base 0.30.0
 _ZN17QtMetaTypePrivate23QMetaTypeFunctionHelperIP10ZigbeeNodeLb1EE9ConstructEPvPKv@Base 0.30.0
 _ZN17QtMetaTypePrivate23QMetaTypeFunctionHelperIP11PluginTimerLb1EE8DestructEPv@Base 0.30.0
 _ZN17QtMetaTypePrivate23QMetaTypeFunctionHelperIP11PluginTimerLb1EE9ConstructEPvPKv@Base 0.30.0
 _ZN17QtMetaTypePrivate23QMetaTypeFunctionHelperIP11ScriptAlarmLb1EE8DestructEPv@Base 0.30.0
 _ZN17QtMetaTypePrivate23QMetaTypeFunctionHelperIP11ScriptAlarmLb1EE9ConstructEPvPKv@Base 0.30.0
 _ZN17QtMetaTypePrivate23QMetaTypeFunctionHelperIP11ScriptThingLb1EE8DestructEPv@Base 0.30.0
 _ZN17QtMetaTypePrivate23QMetaTypeFunctionHelperIP11ScriptThingLb1EE9ConstructEPvPKv@Base 0.30.0
 _ZN17QtMetaTypePrivate23QMetaTypeFunctionHelperIP13ZigbeeNetworkLb1EE8DestructEPv@Base 0.30.0
 _ZN17QtMetaTypePrivate23QMetaTypeFunctionHelperIP13ZigbeeNetworkLb1EE9ConstructEPvPKv@Base 0.30.0
 _ZN17QtMetaTypePrivate23QMetaTypeFunctionHelperIP15ModbusRtuMasterLb1EE8DestructEPv@Base 0.30.0
 _ZN17QtMetaTypePrivate23QMetaTypeFunctionHelperIP15ModbusRtuMasterLb1EE9ConstructEPvPKv@Base 0.30.0
 _ZN17QtMetaTypePrivate23QMetaTypeFunctionHelperIP17IntegrationPluginLb1EE8DestructEPv@Base 0.30.0
 _ZN17QtMetaTypePrivate23QMetaTypeFunctionHelperIP17IntegrationPluginLb1EE9ConstructEPvPKv@Base 0.30.0
 _ZN17QtMetaTypePrivate23QMetaTypeFunctionHelperIP18PluginTimerManagerLb1EE8DestructEPv@Base 0.30.0
 _ZN17QtMetaTypePrivate23QMetaTypeFunctionHelperIP18PluginTimerManagerLb1EE9ConstructEPvPKv@Base 0.30.0
 _ZN17QtMetaTypePrivate23QMetaTypeFunctionHelperIP18WiredNetworkDeviceLb1EE8DestructEPv@Base 0.30.0
 _ZN17QtMetaTypePrivate23QMetaTypeFunctionHelperIP18WiredNetworkDeviceLb1EE9ConstructEPvPKv@Base 0.30.0
 _ZN17QtMetaTypePrivate23QMetaTypeFunctionHelperIP21WirelessNetworkDeviceLb1EE8DestructEPv@Base 0.30.0
 _ZN17QtMetaTypePrivate23QMetaTypeFunctionHelperIP21WirelessNetworkDeviceLb1EE9ConstructEPvPKv@Base 0.30.0
 _ZN17QtMetaTypePrivate23QMetaTypeFunctionHelperIP5ThingLb1EE8DestructEPv@Base 0.30.0
 _ZN17QtMetaTypePrivate23QMetaTypeFunctionHelperIP5ThingLb1EE9ConstructEPvPKv@Base 0.30.0
 _ZN17QtMetaTypePrivate23QMetaTypeFunctionHelperIPN11nymeaserver11DatabaseJobELb1EE8DestructEPv@Base 0.30.0
 _ZN17QtMetaTypePrivate23QMetaTypeFunctionHelperIPN11nymeaserver11DatabaseJobELb1EE9ConstructEPvPKv@Base 0.30.0
 _ZN17QtMetaTypePrivate23QMetaTypeFunctionHelperIPN11nymeaserver11ScriptEventELb1EE8DestructEPv@Base 0.30.0
 _ZN17QtMetaTypePrivate23QMetaTypeFunctionHelperIPN11nymeaserver11ScriptEventELb1EE9ConstructEPvPKv@Base 0.30.0
 _ZN17QtMetaTypePrivate23QMetaTypeFunctionHelperIPN11nymeaserver11ScriptStateELb1EE8DestructEPv@Base 0.30.0
 _ZN17QtMetaTypePrivate23QMetaTypeFunctionHelperIPN11nymeaserver11ScriptStateELb1EE9ConstructEPvPKv@Base 0.30.0
 _ZN17QtMetaTypePrivate23QMetaTypeFunctionHelperIPN11nymeaserver12ScriptActionELb1EE8DestructEPv@Base 0.30.0
 _ZN17QtMetaTypePrivate23QMetaTypeFunctionHelperIPN11nymeaserver12ScriptActionELb1EE9ConstructEPvPKv@Base 0.30.0
 _ZN17QtMetaTypePrivate23QMetaTypeFunctionHelperIPN11nymeaserver20ScriptInterfaceEventELb1EE8DestructEPv@Base 0.30.0
 _ZN17QtMetaTypePrivate23QMetaTypeFunctionHelperIPN11nymeaserver20ScriptInterfaceEventELb1EE9ConstructEPvPKv@Base 0.30.0
 _ZN17QtMetaTypePrivate23QMetaTypeFunctionHelperIPN11nymeaserver21ScriptInterfaceActionELb1EE8DestructEPv@Base 0.30.0
 _ZN17QtMetaTypePrivate23QMetaTypeFunctionHelperIPN11nymeaserver21ScriptInterfaceActionELb1EE9ConstructEPvPKv@Base 0.30.0
 _ZN17QtMetaTypePrivate23QSequentialIterableImpl10moveToImplI5QListIiEEEvPKvPPvNS0_8PositionE@Base 0.30.0
 _ZN17QtMetaTypePrivate23QSequentialIterableImpl6atImplI5QListIiEEEPKvS5_i@Base 0.30.0
 _ZN17QtMetaTypePrivate23QSequentialIterableImpl7getImplI5QListIiEEENS_11VariantDataEPKPvij@Base 0.30.0
 _ZN17QtMetaTypePrivate23QSequentialIterableImpl8sizeImplI5QListIiEEEiPKv@Base 0.30.0
 _ZN17QtMetaTypePrivate25ContainerCapabilitiesImplI5QListIiEvE10appendImplEPKvS5_@Base 0.30.0
 _ZN18CloudNotifications10setupThingEP14ThingSetupInfo@Base 0.30.0
 _ZN18CloudNotifications11qt_metacallEN11QMetaObject4CallEiPPv@Base 0.30.0
 _ZN18CloudNotifications11qt_metacastEPKc@Base 0.30.0
 _ZN18CloudNotifications14postSetupThingEP5Thing@Base 0.30.0
 _ZN18CloudNotifications16staticMetaObjectE@Base 0.30.0
 _ZN18CloudNotificationsC1EP7QObject@Base 0.30.0
 _ZN18CloudNotificationsC2EP7QObject@Base 0.30.0
 _ZN20ScriptThingSetupInfo11qt_metacallEN11QMetaObject4CallEiPPv@Base 0.30.0
 _ZN20ScriptThingSetupInfo11qt_metacastEPKc@Base 0.30.0
 _ZN20ScriptThingSetupInfo16staticMetaObjectE@Base 0.30.0
 _ZN20ScriptThingSetupInfo7abortedEv@Base 0.30.0
 _ZN20ScriptThingSetupInfo8finishedEv@Base 0.30.0
 _ZN21ScriptThingActionInfo11qt_metacallEN11QMetaObject4CallEiPPv@Base 0.30.0
 _ZN21ScriptThingActionInfo11qt_metacastEPKc@Base 0.30.0
 _ZN21ScriptThingActionInfo16staticMetaObjectE@Base 0.30.0
 _ZN21ScriptThingActionInfo7abortedEv@Base 0.30.0
 _ZN21ScriptThingActionInfo8finishedEv@Base 0.30.0
 _ZN22ApiKeysProvidersLoader10loadPluginERK7QString@Base 0.30.0
 _ZN22ApiKeysProvidersLoader11qt_metacallEN11QMetaObject4CallEiPPv@Base 0.30.0
 _ZN22ApiKeysProvidersLoader11qt_metacastEPKc@Base 0.30.0
 _ZN22ApiKeysProvidersLoader16staticMetaObjectE@Base 0.30.0
 _ZN22ApiKeysProvidersLoaderC1EP7QObject@Base 0.30.0
 _ZN22ApiKeysProvidersLoaderC2EP7QObject@Base 0.30.0
 _ZN22ScriptThingPairingInfo11qt_metacallEN11QMetaObject4CallEiPPv@Base 0.30.0
 _ZN22ScriptThingPairingInfo11qt_metacastEPKc@Base 0.30.0
 _ZN22ScriptThingPairingInfo16staticMetaObjectE@Base 0.30.0
 _ZN22ScriptThingPairingInfo7abortedEv@Base 0.30.0
 _ZN22ScriptThingPairingInfo8finishedEv@Base 0.30.0
 _ZN23PythonIntegrationPlugin10initPythonEv@Base 0.30.0
 _ZN23PythonIntegrationPlugin10loadScriptERK7QString@Base 0.30.0
 _ZN23PythonIntegrationPlugin10pyMyThingsEP7_objectS1_@Base 0.30.0
 _ZN23PythonIntegrationPlugin10setupThingEP14ThingSetupInfo@Base 0.30.0
 _ZN23PythonIntegrationPlugin11browseThingEP12BrowseResult@Base 0.30.0
 _ZN23PythonIntegrationPlugin11browserItemEP17BrowserItemResult@Base 0.30.0
 _ZN23PythonIntegrationPlugin11qt_metacallEN11QMetaObject4CallEiPPv@Base 0.30.0
 _ZN23PythonIntegrationPlugin11qt_metacastEPKc@Base 0.30.0
 _ZN23PythonIntegrationPlugin12deinitPythonEv@Base 0.30.0
 _ZN23PythonIntegrationPlugin12startPairingEP16ThingPairingInfo@Base 0.30.0
 _ZN23PythonIntegrationPlugin12thingRemovedEP5Thing@Base 0.30.0
 _ZN23PythonIntegrationPlugin13executeActionEP15ThingActionInfo@Base 0.30.0
 _ZN23PythonIntegrationPlugin13pyConfigValueEP7_objectS1_@Base 0.30.0
 _ZN23PythonIntegrationPlugin14confirmPairingEP16ThingPairingInfoRK7QStringS4_@Base 0.30.0
 _ZN23PythonIntegrationPlugin14discoverThingsEP18ThingDiscoveryInfo@Base 0.30.0
 _ZN23PythonIntegrationPlugin14postSetupThingEP5Thing@Base 0.30.0
 _ZN23PythonIntegrationPlugin15pyApiKeyStorageEP7_objectS1_@Base 0.30.0
 _ZN23PythonIntegrationPlugin15pyConfigurationEP7_objectS1_@Base 0.30.0
 _ZN23PythonIntegrationPlugin15pyPluginStorageEP7_objectS1_@Base 0.30.0
 _ZN23PythonIntegrationPlugin16exportEventTypesERK10EventTypesRK7QString@Base 0.30.0
 _ZN23PythonIntegrationPlugin16exportParamTypesERK10ParamTypesRK7QStringS5_S5_@Base 0.30.0
 _ZN23PythonIntegrationPlugin16exportStateTypesERK10StateTypesRK7QString@Base 0.30.0
 _ZN23PythonIntegrationPlugin16exportThingClassERK10ThingClass@Base 0.30.0
 _ZN23PythonIntegrationPlugin16pySetConfigValueEP7_objectS1_@Base 0.30.0
 _ZN23PythonIntegrationPlugin16staticMetaObjectE@Base 0.30.0
 _ZN23PythonIntegrationPlugin17exportActionTypesERK11ActionTypesRK7QString@Base 0.30.0
 _ZN23PythonIntegrationPlugin17s_mainThreadStateE@Base 0.30.0
 _ZN23PythonIntegrationPlugin18callPluginFunctionERK7QStringP7_objectS4_S4_@Base 0.30.0
 _ZN23PythonIntegrationPlugin18executeBrowserItemEP17BrowserActionInfo@Base 0.30.0
 _ZN23PythonIntegrationPlugin20pyAutoThingsAppearedEP7_objectS1_@Base 0.30.0
 _ZN23PythonIntegrationPlugin22pyAutoThingDisappearedEP7_objectS1_@Base 0.30.0
 _ZN23PythonIntegrationPlugin25startMonitoringAutoThingsEv@Base 0.30.0
 _ZN23PythonIntegrationPlugin28exportBrowserItemActionTypesERK11ActionTypesRK7QString@Base 0.30.0
 _ZN23PythonIntegrationPlugin4initEv@Base 0.30.0
 _ZN23PythonIntegrationPlugin9exportIdsEv@Base 0.30.0
 _ZN23PythonIntegrationPlugin9s_pluginsE@Base 0.30.0
 _ZN23PythonIntegrationPluginC1EP7QObject@Base 0.30.0
 _ZN23PythonIntegrationPluginC2EP7QObject@Base 0.30.0
 _ZN23PythonIntegrationPluginD0Ev@Base 0.30.0
 _ZN23PythonIntegrationPluginD1Ev@Base 0.30.0
 _ZN23PythonIntegrationPluginD2Ev@Base 0.30.0
 _ZN23ScriptIntegrationPlugin10loadScriptERK7QString@Base 0.30.0
 _ZN23ScriptIntegrationPlugin10setupThingEP14ThingSetupInfo@Base 0.30.0
 _ZN23ScriptIntegrationPlugin11qt_metacallEN11QMetaObject4CallEiPPv@Base 0.30.0
 _ZN23ScriptIntegrationPlugin11qt_metacastEPKc@Base 0.30.0
 _ZN23ScriptIntegrationPlugin12startPairingEP16ThingPairingInfo@Base 0.30.0
 _ZN23ScriptIntegrationPlugin12thingRemovedEP5Thing@Base 0.30.0
 _ZN23ScriptIntegrationPlugin13executeActionEP15ThingActionInfo@Base 0.30.0
 _ZN23ScriptIntegrationPlugin14confirmPairingEP16ThingPairingInfoRK7QStringS4_@Base 0.30.0
 _ZN23ScriptIntegrationPlugin14discoverThingsEP18ThingDiscoveryInfo@Base 0.30.0
 _ZN23ScriptIntegrationPlugin14postSetupThingEP5Thing@Base 0.30.0
 _ZN23ScriptIntegrationPlugin16staticMetaObjectE@Base 0.30.0
 _ZN23ScriptIntegrationPlugin25startMonitoringAutoThingsEv@Base 0.30.0
 _ZN23ScriptIntegrationPlugin4initEv@Base 0.30.0
 _ZN23ScriptIntegrationPluginC1EP7QObject@Base 0.30.0
 _ZN23ScriptIntegrationPluginC2EP7QObject@Base 0.30.0
 _ZN24ScriptThingDiscoveryInfo11qt_metacallEN11QMetaObject4CallEiPPv@Base 0.30.0
 _ZN24ScriptThingDiscoveryInfo11qt_metacastEPKc@Base 0.30.0
 _ZN24ScriptThingDiscoveryInfo16staticMetaObjectE@Base 0.30.0
 _ZN24ScriptThingDiscoveryInfo7abortedEv@Base 0.30.0
 _ZN24ScriptThingDiscoveryInfo8finishedEv@Base 0.30.0
 _ZN26ThingManagerImplementation10loadPluginEP17IntegrationPlugin@Base 0.30.0
 _ZN26ThingManagerImplementation10setupThingEP5Thing@Base 0.30.0
 _ZN26ThingManagerImplementation11browseThingERK7ThingIdRK7QStringRK7QLocale@Base 0.30.0
 _ZN26ThingManagerImplementation11buildParamsERK10ParamTypesRK9ParamListS5_@Base 0.30.0
 _ZN26ThingManagerImplementation11loadPluginsEv@Base 0.30.0
 _ZN26ThingManagerImplementation11qt_metacallEN11QMetaObject4CallEiPPv@Base 0.30.0
 _ZN26ThingManagerImplementation11qt_metacastEPKc@Base 0.30.0
 _ZN26ThingManagerImplementation12disconnectIOERK14IOConnectionId@Base 0.30.0
 _ZN26ThingManagerImplementation13executeActionERK6Action@Base 0.30.0
 _ZN26ThingManagerImplementation13registerThingEP5Thing@Base 0.30.0
 _ZN26ThingManagerImplementation13trySetupThingEP5Thing@Base 0.30.0
 _ZN26ThingManagerImplementation14confirmPairingERK20PairingTransactionIdRK7QStringS5_@Base 0.30.0
 _ZN26ThingManagerImplementation14discoverThingsERK12ThingClassIdRK9ParamList@Base 0.30.0
 _ZN26ThingManagerImplementation14postSetupThingEP5Thing@Base 0.30.0
 _ZN26ThingManagerImplementation14setStateFilterERK7ThingIdRK11StateTypeIdN5Types16StateValueFilterE@Base 0.30.0
 _ZN26ThingManagerImplementation15loadThingStatesEP5Thing@Base 0.30.0
 _ZN26ThingManagerImplementation15pluginsMetadataEv@Base 0.30.0
 _ZN26ThingManagerImplementation15setEventLoggingERK7ThingIdRK11EventTypeIdb@Base 0.30.0
 _ZN26ThingManagerImplementation15setPluginConfigERK8PluginIdRK9ParamList@Base 0.30.0
 _ZN26ThingManagerImplementation15storeThingStateEP5ThingRK11StateTypeId@Base 0.30.0
 _ZN26ThingManagerImplementation15translateVendorERK6VendorRK7QLocale@Base 0.30.0
 _ZN26ThingManagerImplementation16onEventTriggeredE5Event@Base 0.30.0
 _ZN26ThingManagerImplementation16pluginSearchDirsEv@Base 0.30.0
 _ZN26ThingManagerImplementation16reconfigureThingERK17ThingDescriptorIdRK9ParamListRK7QString@Base 0.30.0
 _ZN26ThingManagerImplementation16reconfigureThingERK7ThingIdRK9ParamListRK7QString@Base 0.30.0
 _ZN26ThingManagerImplementation16setThingSettingsERK7ThingIdRK9ParamList@Base 0.30.0
 _ZN26ThingManagerImplementation16staticMetaObjectE@Base 0.30.0
 _ZN26ThingManagerImplementation16storeThingStatesEP5Thing@Base 0.30.0
 _ZN26ThingManagerImplementation16syncIOConnectionEP5ThingRK11StateTypeId@Base 0.30.0
 _ZN26ThingManagerImplementation17loadIOConnectionsEv@Base 0.30.0
 _ZN26ThingManagerImplementation17pairThingInternalEP16ThingPairingInfo@Base 0.30.0
 _ZN26ThingManagerImplementation18addConfiguredThingERK12ThingClassIdRK9ParamListRK7QString@Base 0.30.0
 _ZN26ThingManagerImplementation18addConfiguredThingERK17ThingDescriptorIdRK9ParamListRK7QString@Base 0.30.0
 _ZN26ThingManagerImplementation18browserItemDetailsERK7ThingIdRK7QStringRK7QLocale@Base 0.30.0
 _ZN26ThingManagerImplementation18executeBrowserItemERK13BrowserAction@Base 0.30.0
 _ZN26ThingManagerImplementation18storeIOConnectionsEv@Base 0.30.0
 _ZN26ThingManagerImplementation18translateEventTypeERK8PluginIdRK9EventTypeRK7QLocale@Base 0.30.0
 _ZN26ThingManagerImplementation18translateParamTypeERK8PluginIdRK9ParamTypeRK7QLocale@Base 0.30.0
 _ZN26ThingManagerImplementation18translateStateTypeERK8PluginIdRK9StateTypeRK7QLocale@Base 0.30.0
 _ZN26ThingManagerImplementation19translateActionTypeERK8PluginIdRK10ActionTypeRK7QLocale@Base 0.30.0
 _ZN26ThingManagerImplementation19translateThingClassERK10ThingClassRK7QLocale@Base 0.30.0
 _ZN26ThingManagerImplementation20loadConfiguredThingsEv@Base 0.30.0
 _ZN26ThingManagerImplementation20onAutoThingsAppearedERK16ThingDescriptors@Base 0.30.0
 _ZN26ThingManagerImplementation20registerStaticPluginEP17IntegrationPlugin@Base 0.30.0
 _ZN26ThingManagerImplementation20slotThingNameChangedEv@Base 0.30.0
 _ZN26ThingManagerImplementation21removeConfiguredThingERK7ThingId@Base 0.30.0
 _ZN26ThingManagerImplementation21storeConfiguredThingsEv@Base 0.30.0
 _ZN26ThingManagerImplementation22cleanupThingStateCacheEv@Base 0.30.0
 _ZN26ThingManagerImplementation22onAutoThingDisappearedERK7ThingId@Base 0.30.0
 _ZN26ThingManagerImplementation23slotThingSettingChangedERK11ParamTypeIdRK8QVariant@Base 0.30.0
 _ZN26ThingManagerImplementation24executeBrowserItemActionERK17BrowserItemAction@Base 0.30.0
 _ZN26ThingManagerImplementation24reconfigureThingInternalEP5ThingRK9ParamListRK7QString@Base 0.30.0
 _ZN26ThingManagerImplementation25startMonitoringAutoThingsEv@Base 0.30.0
 _ZN26ThingManagerImplementation26addConfiguredThingInternalERK12ThingClassIdRK7QStringRK9ParamListRK7ThingId@Base 0.30.0
 _ZN26ThingManagerImplementation26createCppIntegrationPluginERK7QString@Base 0.30.0
 _ZN26ThingManagerImplementation26slotThingStateValueChangedERK11StateTypeIdRK8QVariantS5_S5_@Base 0.30.0
 _ZN26ThingManagerImplementation6loadedEv@Base 0.30.0
 _ZN26ThingManagerImplementation8onLoadedEv@Base 0.30.0
 _ZN26ThingManagerImplementation9connectIOERK12IOConnection@Base 0.30.0
 _ZN26ThingManagerImplementation9editThingERK7ThingIdRK7QString@Base 0.30.0
 _ZN26ThingManagerImplementation9initThingEP5Thing@Base 0.30.0
 _ZN26ThingManagerImplementation9pairThingERK12ThingClassIdRK9ParamListRK7QString@Base 0.30.0
 _ZN26ThingManagerImplementation9pairThingERK17ThingDescriptorIdRK9ParamListRK7QString@Base 0.30.0
 _ZN26ThingManagerImplementation9pairThingERK7ThingIdRK9ParamListRK7QString@Base 0.30.0
 _ZN26ThingManagerImplementation9translateERK8PluginIdRK7QStringRK7QLocale@Base 0.30.0
 _ZN26ThingManagerImplementationC1EP15HardwareManagerRK7QLocaleP7QObject@Base 0.30.0
 _ZN26ThingManagerImplementationC2EP15HardwareManagerRK7QLocaleP7QObject@Base 0.30.0
 _ZN26ThingManagerImplementationD0Ev@Base 0.30.0
 _ZN26ThingManagerImplementationD1Ev@Base 0.30.0
 _ZN26ThingManagerImplementationD2Ev@Base 0.30.0
 _ZN5QHashI10QByteArrayS0_E11deleteNode2EPN9QHashData4NodeE@Base 0.30.0
 _ZN5QHashI10QByteArrayS0_E13duplicateNodeEPN9QHashData4NodeEPv@Base 0.30.0
 _ZN5QHashI12ThingClassId10ThingClassE11deleteNode2EPN9QHashData4NodeE@Base 0.30.0
 _ZN5QHashI12ThingClassId10ThingClassE13duplicateNodeEPN9QHashData4NodeEPv@Base 0.30.0
 _ZN5QHashI14IOConnectionId12IOConnectionE11deleteNode2EPN9QHashData4NodeE@Base 0.30.0
 _ZN5QHashI14IOConnectionId12IOConnectionE13duplicateNodeEPN9QHashData4NodeEPv@Base 0.30.0
 _ZN5QHashI17ThingDescriptorId15ThingDescriptorE11deleteNode2EPN9QHashData4NodeE@Base 0.30.0
 _ZN5QHashI17ThingDescriptorId15ThingDescriptorE13duplicateNodeEPN9QHashData4NodeEPv@Base 0.30.0
 _ZN5QHashI20PairingTransactionIdN26ThingManagerImplementation14PairingContextEE11deleteNode2EPN9QHashData4NodeE@Base 0.30.0
 _ZN5QHashI20PairingTransactionIdN26ThingManagerImplementation14PairingContextEE13duplicateNodeEPN9QHashData4NodeEPv@Base 0.30.0
 _ZN5QHashI5QUuid10QByteArrayE11deleteNode2EPN9QHashData4NodeE@Base 0.30.0
 _ZN5QHashI5QUuid10QByteArrayE13duplicateNodeEPN9QHashData4NodeEPv@Base 0.30.0
 _ZN5QHashI5QUuid11QStringListE11deleteNode2EPN9QHashData4NodeE@Base 0.30.0
 _ZN5QHashI5QUuid11QStringListE13duplicateNodeEPN9QHashData4NodeEPv@Base 0.30.0
 _ZN5QHashI5QUuid7QLocaleE11deleteNode2EPN9QHashData4NodeE@Base 0.30.0
 _ZN5QHashI5QUuid7QLocaleE13duplicateNodeEPN9QHashData4NodeEPv@Base 0.30.0
 _ZN5QHashI5QUuidP10QSslSocketE11deleteNode2EPN9QHashData4NodeE@Base 0.30.0
 _ZN5QHashI5QUuidP10QSslSocketE13duplicateNodeEPN9QHashData4NodeEPv@Base 0.30.0
 _ZN5QHashI5QUuidP10QTcpSocketE11deleteNode2EPN9QHashData4NodeE@Base 0.30.0
 _ZN5QHashI5QUuidP10QTcpSocketE13duplicateNodeEPN9QHashData4NodeEPv@Base 0.30.0
 _ZN5QHashI5QUuidP10QWebSocketE11deleteNode2EPN9QHashData4NodeE@Base 0.30.0
 _ZN5QHashI5QUuidP10QWebSocketE13duplicateNodeEPN9QHashData4NodeEPv@Base 0.30.0
 _ZN5QHashI5QUuidP13ZigbeeNetworkE11deleteNode2EPN9QHashData4NodeE@Base 0.30.0
 _ZN5QHashI5QUuidP13ZigbeeNetworkE13duplicateNodeEPN9QHashData4NodeEPv@Base 0.30.0
 _ZN5QHashI5QUuidP15ModbusRtuMasterE11deleteNode2EPN9QHashData4NodeE@Base 0.30.0
 _ZN5QHashI5QUuidP15ModbusRtuMasterE13duplicateNodeEPN9QHashData4NodeEPv@Base 0.30.0
 _ZN5QHashI5QUuidP16QBluetoothSocketE11deleteNode2EPN9QHashData4NodeE@Base 0.30.0
 _ZN5QHashI5QUuidP16QBluetoothSocketE13duplicateNodeEPN9QHashData4NodeEPv@Base 0.30.0
 _ZN5QHashI5QUuidP6QTimerE11deleteNode2EPN9QHashData4NodeE@Base 0.30.0
 _ZN5QHashI5QUuidP6QTimerE13duplicateNodeEPN9QHashData4NodeEPv@Base 0.30.0
 _ZN5QHashI5QUuidPN11nymeaserver18TransportInterfaceEE11deleteNode2EPN9QHashData4NodeE@Base 0.30.0
 _ZN5QHashI5QUuidPN11nymeaserver18TransportInterfaceEE13duplicateNodeEPN9QHashData4NodeEPv@Base 0.30.0
 _ZN5QHashI5QUuidPN11nymeaserver6ScriptEE11deleteNode2EPN9QHashData4NodeE@Base 0.30.0
 _ZN5QHashI5QUuidPN11nymeaserver6ScriptEE13duplicateNodeEPN9QHashData4NodeEPv@Base 0.30.0
 _ZN5QHashI6RuleIdN11nymeaserver10RuleEngine12RemovePolicyEE11deleteNode2EPN9QHashData4NodeE@Base 0.30.0
 _ZN5QHashI6RuleIdN11nymeaserver10RuleEngine12RemovePolicyEE13duplicateNodeEPN9QHashData4NodeEPv@Base 0.30.0
 _ZN5QHashI6RuleIdN11nymeaserver4RuleEE11deleteNode2EPN9QHashData4NodeE@Base 0.30.0
 _ZN5QHashI6RuleIdN11nymeaserver4RuleEE13duplicateNodeEPN9QHashData4NodeEPv@Base 0.30.0
 _ZN5QHashI7QString10QByteArrayE11deleteNode2EPN9QHashData4NodeE@Base 0.30.0
 _ZN5QHashI7QString10QByteArrayE13duplicateNodeEPN9QHashData4NodeEPv@Base 0.30.0
 _ZN5QHashI7QString11QMetaObjectE11deleteNode2EPN9QHashData4NodeE@Base 0.30.0
 _ZN5QHashI7QString5QListIPN11nymeaserver11DatabaseJobEEE11deleteNode2EPN9QHashData4NodeE@Base 0.30.0
 _ZN5QHashI7QString5QListIPN11nymeaserver11DatabaseJobEEE13duplicateNodeEPN9QHashData4NodeEPv@Base 0.30.0
 _ZN5QHashI7QString6ApiKeyE11deleteNode2EPN9QHashData4NodeE@Base 0.30.0
 _ZN5QHashI7QString6ApiKeyE13duplicateNodeEPN9QHashData4NodeEPv@Base 0.30.0
 _ZN5QHashI7QString8QVariantE11deleteNode2EPN9QHashData4NodeE@Base 0.30.0
 _ZN5QHashI7QString9InterfaceE11deleteNode2EPN9QHashData4NodeE@Base 0.30.0
 _ZN5QHashI7QString9InterfaceE13duplicateNodeEPN9QHashData4NodeEPv@Base 0.30.0
 _ZN5QHashI7QString9QDateTimeE11deleteNode2EPN9QHashData4NodeE@Base 0.30.0
 _ZN5QHashI7QString9QDateTimeE13duplicateNodeEPN9QHashData4NodeEPv@Base 0.30.0
 _ZN5QHashI7QString9QMetaEnumE11deleteNode2EPN9QHashData4NodeE@Base 0.30.0
 _ZN5QHashI7QString9QMetaEnumE13duplicateNodeEPN9QHashData4NodeEPv@Base 0.30.0
 _ZN5QHashI7QStringN11nymeaserver10MqttPolicyEE11deleteNode2EPN9QHashData4NodeE@Base 0.30.0
 _ZN5QHashI7QStringN11nymeaserver10MqttPolicyEE13duplicateNodeEPN9QHashData4NodeEPv@Base 0.30.0
 _ZN5QHashI7QStringN11nymeaserver10SerialPortEE11deleteNode2EPN9QHashData4NodeE@Base 0.30.0
 _ZN5QHashI7QStringN11nymeaserver10SerialPortEE13duplicateNodeEPN9QHashData4NodeEPv@Base 0.30.0
 _ZN5QHashI7QStringN11nymeaserver19ServerConfigurationEE11deleteNode2EPN9QHashData4NodeE@Base 0.30.0
 _ZN5QHashI7QStringN11nymeaserver19ServerConfigurationEE13duplicateNodeEPN9QHashData4NodeEPv@Base 0.30.0
 _ZN5QHashI7QStringN11nymeaserver22WebServerConfigurationEE11deleteNode2EPN9QHashData4NodeE@Base 0.30.0
 _ZN5QHashI7QStringN11nymeaserver22WebServerConfigurationEE13duplicateNodeEPN9QHashData4NodeEPv@Base 0.30.0
 _ZN5QHashI7QStringP11JsonHandlerE11deleteNode2EPN9QHashData4NodeE@Base 0.30.0
 _ZN5QHashI7QStringP11JsonHandlerE13duplicateNodeEPN9QHashData4NodeEPv@Base 0.30.0
 _ZN5QHashI7QStringP11MqttChannelE11deleteNode2EPN9QHashData4NodeE@Base 0.30.0
 _ZN5QHashI7QStringP11MqttChannelE13duplicateNodeEPN9QHashData4NodeEPv@Base 0.30.0
 _ZN5QHashI7QStringP11QTranslatorE11deleteNode2EPN9QHashData4NodeE@Base 0.30.0
 _ZN5QHashI7QStringP11QTranslatorE13duplicateNodeEPN9QHashData4NodeEPv@Base 0.30.0
 _ZN5QHashI7QStringP9JsonReplyE11deleteNode2EPN9QHashData4NodeE@Base 0.30.0
 _ZN5QHashI7QStringP9JsonReplyE13duplicateNodeEPN9QHashData4NodeEPv@Base 0.30.0
 _ZN5QHashI7QStringPN11nymeaserver15WebSocketServerEE11deleteNode2EPN9QHashData4NodeE@Base 0.30.0
 _ZN5QHashI7QStringPN11nymeaserver15WebSocketServerEE13duplicateNodeEPN9QHashData4NodeEPv@Base 0.30.0
 _ZN5QHashI7QStringPN11nymeaserver9TcpServerEE11deleteNode2EPN9QHashData4NodeE@Base 0.30.0
 _ZN5QHashI7QStringPN11nymeaserver9TcpServerEE13duplicateNodeEPN9QHashData4NodeEPv@Base 0.30.0
 _ZN5QHashI7QStringPN11nymeaserver9WebServerEE11deleteNode2EPN9QHashData4NodeE@Base 0.30.0
 _ZN5QHashI7QStringPN11nymeaserver9WebServerEE13duplicateNodeEPN9QHashData4NodeEPv@Base 0.30.0
 _ZN5QHashI7QStringS0_E11deleteNode2EPN9QHashData4NodeE@Base 0.30.0
 _ZN5QHashI7QStringS0_E13duplicateNodeEPN9QHashData4NodeEPv@Base 0.30.0
 _ZN5QHashI7QStringtE11deleteNode2EPN9QHashData4NodeE@Base 0.30.0
 _ZN5QHashI7ThingIdP14ThingSetupInfoE11deleteNode2EPN9QHashData4NodeE@Base 0.30.0
 _ZN5QHashI7ThingIdP14ThingSetupInfoE13duplicateNodeEPN9QHashData4NodeEPv@Base 0.30.0
 _ZN5QHashI7ThingIdP5ThingE11deleteNode2EPN9QHashData4NodeE@Base 0.30.0
 _ZN5QHashI7ThingIdP5ThingE13duplicateNodeEPN9QHashData4NodeEPv@Base 0.30.0
 _ZN5QHashI8PluginIdN10Translator17TranslatorContextEE11deleteNode2EPN9QHashData4NodeE@Base 0.30.0
 _ZN5QHashI8PluginIdN10Translator17TranslatorContextEE13duplicateNodeEPN9QHashData4NodeEPv@Base 0.30.0
 _ZN5QHashI8PluginIdP17IntegrationPluginE11deleteNode2EPN9QHashData4NodeE@Base 0.30.0
 _ZN5QHashI8PluginIdP17IntegrationPluginE13duplicateNodeEPN9QHashData4NodeEPv@Base 0.30.0
 _ZN5QHashI8VendorId5QListI12ThingClassIdEE11deleteNode2EPN9QHashData4NodeE@Base 0.30.0
 _ZN5QHashI8VendorId5QListI12ThingClassIdEE13duplicateNodeEPN9QHashData4NodeEPv@Base 0.30.0
 _ZN5QHashI8VendorId6VendorE11deleteNode2EPN9QHashData4NodeE@Base 0.30.0
 _ZN5QHashI8VendorId6VendorE13duplicateNodeEPN9QHashData4NodeEPv@Base 0.30.0
 _ZN5QHashIN11nymeaserver13ZigbeeAdapter17ZigbeeBackendTypeE7QStringE11deleteNode2EPN9QHashData4NodeE@Base 0.30.0
 _ZN5QHashIN11nymeaserver13ZigbeeAdapter17ZigbeeBackendTypeE7QStringE13duplicateNodeEPN9QHashData4NodeEPv@Base 0.30.0
 _ZN5QHashIP10QSslSocketN11nymeaserver11HttpRequestEE11deleteNode2EPN9QHashData4NodeE@Base 0.30.0
 _ZN5QHashIP10QSslSocketN11nymeaserver11HttpRequestEE13duplicateNodeEPN9QHashData4NodeEPv@Base 0.30.0
 _ZN5QHashIP10ZigbeeNodeP13ZigbeeHandlerE11deleteNode2EPN9QHashData4NodeE@Base 0.30.0
 _ZN5QHashIP10ZigbeeNodeP13ZigbeeHandlerE13duplicateNodeEPN9QHashData4NodeEPv@Base 0.30.0
 _ZN5QHashIP11JsonHandler7QStringE11deleteNode2EPN9QHashData4NodeE@Base 0.30.0
 _ZN5QHashIP11JsonHandler7QStringE13duplicateNodeEPN9QHashData4NodeEPv@Base 0.30.0
 _ZN5QHashIP13QNetworkReply20UpnpDeviceDescriptorE11deleteNode2EPN9QHashData4NodeE@Base 0.30.0
 _ZN5QHashIP13QNetworkReply20UpnpDeviceDescriptorE13duplicateNodeEPN9QHashData4NodeEPv@Base 0.30.0
 _ZN5QHashIP13QNetworkReplyP6QTimerE11deleteNode2EPN9QHashData4NodeE@Base 0.30.0
 _ZN5QHashIP13QNetworkReplyP6QTimerE13duplicateNodeEPN9QHashData4NodeEPv@Base 0.30.0
 _ZN5QHashIP14QFutureWatcherIvE7QStringE11deleteNode2EPN9QHashData4NodeE@Base 0.30.0
 _ZN5QHashIP14QFutureWatcherIvE7QStringE13duplicateNodeEPN9QHashData4NodeEPv@Base 0.30.0
 _ZN5QHashIP23PythonIntegrationPluginP7_objectE11deleteNode2EPN9QHashData4NodeE@Base 0.30.0
 _ZN5QHashIP23PythonIntegrationPluginP7_objectE13duplicateNodeEPN9QHashData4NodeEPv@Base 0.30.0
 _ZN5QHashIP5ThingP11ScriptThingE11deleteNode2EPN9QHashData4NodeE@Base 0.30.0
 _ZN5QHashIP5ThingP11ScriptThingE13duplicateNodeEPN9QHashData4NodeEPv@Base 0.30.0
 _ZN5QHashIP5ThingP6_thingE11deleteNode2EPN9QHashData4NodeE@Base 0.30.0
 _ZN5QHashIP5ThingP6_thingE13duplicateNodeEPN9QHashData4NodeEPv@Base 0.30.0
 _ZN5QHashIP6QTimerP10QSslSocketE11deleteNode2EPN9QHashData4NodeE@Base 0.30.0
 _ZN5QHashIP6QTimerP10QSslSocketE13duplicateNodeEPN9QHashData4NodeEPv@Base 0.30.0
 _ZN5QHashIP9I2CDeviceN11nymeaserver24I2CManagerImplementation11ReadingInfoEE11deleteNode2EPN9QHashData4NodeE@Base 0.30.0
 _ZN5QHashIP9I2CDeviceN11nymeaserver24I2CManagerImplementation11ReadingInfoEE13duplicateNodeEPN9QHashData4NodeEPv@Base 0.30.0
 _ZN5QHashIP9I2CDeviceP5QFileE11deleteNode2EPN9QHashData4NodeE@Base 0.30.0
 _ZN5QHashIP9I2CDeviceP5QFileE13duplicateNodeEPN9QHashData4NodeEPv@Base 0.30.0
 _ZN5QHashIP9JsonReplyPN11nymeaserver18TransportInterfaceEE11deleteNode2EPN9QHashData4NodeE@Base 0.30.0
 _ZN5QHashIP9JsonReplyPN11nymeaserver18TransportInterfaceEE13duplicateNodeEPN9QHashData4NodeEPv@Base 0.30.0
 _ZN5QHashIPN17remoteproxyclient21RemoteProxyConnectionEN11nymeaserver14CloudTransport17ConnectionContextEE11deleteNode2EPN9QHashData4NodeE@Base 0.30.0
 _ZN5QHashIPN17remoteproxyclient21RemoteProxyConnectionEN11nymeaserver14CloudTransport17ConnectionContextEE13duplicateNodeEPN9QHashData4NodeEPv@Base 0.30.0
 _ZN5QHashIi5QUuidE11deleteNode2EPN9QHashData4NodeE@Base 0.30.0
 _ZN5QHashIi5QUuidE13duplicateNodeEPN9QHashData4NodeEPv@Base 0.30.0
 _ZN5QHashIiN11nymeaserver19ServerConfigurationEE11deleteNode2EPN9QHashData4NodeE@Base 0.30.0
 _ZN5QHashIiN11nymeaserver19ServerConfigurationEE13duplicateNodeEPN9QHashData4NodeEPv@Base 0.30.0
 _ZN5QHashIt7QStringE11deleteNode2EPN9QHashData4NodeE@Base 0.30.0
 _ZN5QHashIt7QStringE13duplicateNodeEPN9QHashData4NodeEPv@Base 0.30.0
 _ZN8UserInfo11setUsernameERK7QString@Base 0.30.0
 _ZN8UserInfo16staticMetaObjectE@Base 0.30.0
 _ZN8UserInfoC1ERK7QString@Base 0.30.0
 _ZN8UserInfoC1Ev@Base 0.30.0
 _ZN8UserInfoC2ERK7QString@Base 0.30.0
 _ZN8UserInfoC2Ev@Base 0.30.0
 _ZN9QtPrivate11QSlotObjectIM11ScriptThingFvvENS_4ListIJEEEvE4implEiPNS_15QSlotObjectBaseEP7QObjectPPvPb@Base 0.30.0
 _ZN9QtPrivate11QSlotObjectIM12AWSConnectorFvRK7QStringN4Mqtt19SubscribeReturnCodeEENS_4ListIJS4_S6_EEEvE4implEiPNS_15QSlotObjectBaseEP7QObjectPPvPb@Base 0.30.0
 _ZN9QtPrivate11QSlotObjectIM12AWSConnectorFvRK7QStringRK10QByteArrayENS_4ListIJS4_S7_EEEvE4implEiPNS_15QSlotObjectBaseEP7QObjectPPvPb@Base 0.30.0
 _ZN9QtPrivate11QSlotObjectIM12AWSConnectorFvtRK7QStringENS_4ListIJtS4_EEEvE4implEiPNS_15QSlotObjectBaseEP7QObjectPPvPb@Base 0.30.0
 _ZN9QtPrivate11QSlotObjectIM12AWSConnectorFvvENS_4ListIJEEEvE4implEiPNS_15QSlotObjectBaseEP7QObjectPPvPb@Base 0.30.0
 _ZN9QtPrivate11QSlotObjectIM18UpnpDiscoveryReplyFvvENS_4ListIJEEEvE4implEiPNS_15QSlotObjectBaseEP7QObjectPPvPb@Base 0.30.0
 _ZN9QtPrivate11QSlotObjectIM20ScriptThingSetupInfoFvvENS_4ListIJEEEvE4implEiPNS_15QSlotObjectBaseEP7QObjectPPvPb@Base 0.30.0
 _ZN9QtPrivate11QSlotObjectIM21ScriptThingActionInfoFvvENS_4ListIJEEEvE4implEiPNS_15QSlotObjectBaseEP7QObjectPPvPb@Base 0.30.0
 _ZN9QtPrivate11QSlotObjectIM22ScriptThingPairingInfoFvvENS_4ListIJEEEvE4implEiPNS_15QSlotObjectBaseEP7QObjectPPvPb@Base 0.30.0
 _ZN9QtPrivate11QSlotObjectIM23BluetoothDiscoveryReplyFvvENS_4ListIJEEEvE4implEiPNS_15QSlotObjectBaseEP7QObjectPPvPb@Base 0.30.0
 _ZN9QtPrivate11QSlotObjectIM24ScriptThingDiscoveryInfoFvvENS_4ListIJEEEvE4implEiPNS_15QSlotObjectBaseEP7QObjectPPvPb@Base 0.30.0
 _ZN9QtPrivate11QSlotObjectIM26ThingManagerImplementationFv5EventENS_4ListIJRKS2_EEEvE4implEiPNS_15QSlotObjectBaseEP7QObjectPPvPb@Base 0.30.0
 _ZN9QtPrivate11QSlotObjectIM26ThingManagerImplementationFvRK11ParamTypeIdRK8QVariantENS_4ListIJS4_S7_EEEvE4implEiPNS_15QSlotObjectBaseEP7QObjectPPvPb@Base 0.30.0
 _ZN9QtPrivate11QSlotObjectIM26ThingManagerImplementationFvRK11StateTypeIdRK8QVariantS7_S7_ENS_4ListIJS4_S7_S7_S7_EEEvE4implEiPNS_15QSlotObjectBaseEP7QObjectPPvPb@Base 0.30.0
 _ZN9QtPrivate11QSlotObjectIM26ThingManagerImplementationFvRK16ThingDescriptorsENS_4ListIJS4_EEEvE4implEiPNS_15QSlotObjectBaseEP7QObjectPPvPb@Base 0.30.0
 _ZN9QtPrivate11QSlotObjectIM26ThingManagerImplementationFvRK7ThingIdENS_4ListIJS4_EEEvE4implEiPNS_15QSlotObjectBaseEP7QObjectPPvPb@Base 0.30.0
 _ZN9QtPrivate11QSlotObjectIM26ThingManagerImplementationFvvENS_4ListIJEEEvE4implEiPNS_15QSlotObjectBaseEP7QObjectPPvPb@Base 0.30.0
 _ZN9QtPrivate11QSlotObjectIM7QObjectFvvENS_4ListIJEEEvE4implEiPNS_15QSlotObjectBaseEPS1_PPvPb@Base 0.30.0
 _ZN9QtPrivate11QSlotObjectIMN11nymeaserver10MqttBrokerEFvRK7QStringENS_4ListIJS5_EEEvE4implEiPNS_15QSlotObjectBaseEP7QObjectPPvPb@Base 0.30.0
 _ZN9QtPrivate11QSlotObjectIMN11nymeaserver10MqttBrokerEFvRK7QStringS5_ENS_4ListIJS5_S5_EEEvE4implEiPNS_15QSlotObjectBaseEP7QObjectPPvPb@Base 0.30.0
 _ZN9QtPrivate11QSlotObjectIMN11nymeaserver10MqttBrokerEFvRK7QStringS5_N4Mqtt3QoSEENS_4ListIJS5_S5_S7_EEEvE4implEiPNS_15QSlotObjectBaseEP7QObjectPPvPb@Base 0.30.0
 _ZN9QtPrivate11QSlotObjectIMN11nymeaserver10MqttBrokerEFvRK7QStringtS5_RK10QByteArrayENS_4ListIJS5_tS5_S8_EEEvE4implEiPNS_15QSlotObjectBaseEP7QObjectPPvPb@Base 0.30.0
 _ZN9QtPrivate11QSlotObjectIMN11nymeaserver10MqttBrokerEFviRK7QStringS5_RK12QHostAddressENS_4ListIJiS5_S5_S8_EEEvE4implEiPNS_15QSlotObjectBaseEP7QObjectPPvPb@Base 0.30.0
 _ZN9QtPrivate11QSlotObjectIMN11nymeaserver11ScriptEventEFvRK5EventENS_4ListIJS5_EEEvE4implEiPNS_15QSlotObjectBaseEP7QObjectPPvPb@Base 0.30.0
 _ZN9QtPrivate11QSlotObjectIMN11nymeaserver11ScriptStateEFvP5ThingRK11StateTypeIdENS_4ListIJS4_S7_EEEvE4implEiPNS_15QSlotObjectBaseEP7QObjectPPvPb@Base 0.30.0
 _ZN9QtPrivate11QSlotObjectIMN11nymeaserver11TagsHandlerEFvRKNS1_3TagEENS_4ListIJS5_EEEvE4implEiPNS_15QSlotObjectBaseEP7QObjectPPvPb@Base 0.30.0
 _ZN9QtPrivate11QSlotObjectIMN11nymeaserver11TagsStorageEFvRK6RuleIdENS_4ListIJS5_EEEvE4implEiPNS_15QSlotObjectBaseEP7QObjectPPvPb@Base 0.30.0
 _ZN9QtPrivate11QSlotObjectIMN11nymeaserver11TagsStorageEFvRK7ThingIdENS_4ListIJS5_EEEvE4implEiPNS_15QSlotObjectBaseEP7QObjectPPvPb@Base 0.30.0
 _ZN9QtPrivate11QSlotObjectIMN11nymeaserver11UserManagerEFvvENS_4ListIJEEEvE4implEiPNS_15QSlotObjectBaseEP7QObjectPPvPb@Base 0.30.0
 _ZN9QtPrivate11QSlotObjectIMN11nymeaserver12CloudManagerEFvRK7QStringENS_4ListIJS5_EEEvE4implEiPNS_15QSlotObjectBaseEP7QObjectPPvPb@Base 0.30.0
 _ZN9QtPrivate11QSlotObjectIMN11nymeaserver12CloudManagerEFvRK7QStringiS5_ENS_4ListIJS5_iS5_EEEvE4implEiPNS_15QSlotObjectBaseEP7QObjectPPvPb@Base 0.30.0
 _ZN9QtPrivate11QSlotObjectIMN11nymeaserver12CloudManagerEFvbENS_4ListIJbEEEvE4implEiPNS_15QSlotObjectBaseEP7QObjectPPvPb@Base 0.30.0
 _ZN9QtPrivate11QSlotObjectIMN11nymeaserver12CloudManagerEFvvENS_4ListIJEEEvE4implEiPNS_15QSlotObjectBaseEP7QObjectPPvPb@Base 0.30.0
 _ZN9QtPrivate11QSlotObjectIMN11nymeaserver12EventHandlerEFvRK5EventENS_4ListIJS5_EEEvE4implEiPNS_15QSlotObjectBaseEP7QObjectPPvPb@Base 0.30.0
 _ZN9QtPrivate11QSlotObjectIMN11nymeaserver12RulesHandlerEFvRK6RuleIdENS_4ListIJS5_EEEvE4implEiPNS_15QSlotObjectBaseEP7QObjectPPvPb@Base 0.30.0
 _ZN9QtPrivate11QSlotObjectIMN11nymeaserver12RulesHandlerEFvRKNS1_4RuleEENS_4ListIJS5_EEEvE4implEiPNS_15QSlotObjectBaseEP7QObjectPPvPb@Base 0.30.0
 _ZN9QtPrivate11QSlotObjectIMN11nymeaserver12UsersHandlerEFvibRK10QByteArrayENS_4ListIJibS5_EEEvE4implEiPNS_15QSlotObjectBaseEP7QObjectPPvPb@Base 0.30.0
 _ZN9QtPrivate11QSlotObjectIMN11nymeaserver13DeviceHandlerEFvP5ThingENS_4ListIJS4_EEEvE4implEiPNS_15QSlotObjectBaseEP7QObjectPPvPb@Base 0.30.0
 _ZN9QtPrivate11QSlotObjectIMN11nymeaserver13DeviceHandlerEFvP5ThingRK5QUuidRK8QVariantENS_4ListIJS4_S7_SA_EEEvE4implEiPNS_15QSlotObjectBaseEP7QObjectPPvPb@Base 0.30.0
 _ZN9QtPrivate11QSlotObjectIMN11nymeaserver13DeviceHandlerEFvRK5QUuidENS_4ListIJRK7ThingIdEEEvE4implEiPNS_15QSlotObjectBaseEP7QObjectPPvPb@Base 0.30.0
 _ZN9QtPrivate11QSlotObjectIMN11nymeaserver13DeviceHandlerEFvRK7ThingIdRK11ParamTypeIdRK8QVariantENS_4ListIJS5_S8_SB_EEEvE4implEiPNS_15QSlotObjectBaseEP7QObjectPPvPb@Base 0.30.0
 _ZN9QtPrivate11QSlotObjectIMN11nymeaserver13DeviceHandlerEFvRK8PluginIdRK9ParamListENS_4ListIJS5_S8_EEEvE4implEiPNS_15QSlotObjectBaseEP7QObjectPPvPb@Base 0.30.0
 _ZN9QtPrivate11QSlotObjectIMN11nymeaserver13ServerManagerEFvRK7QStringENS_4ListIJS5_EEEvE4implEiPNS_15QSlotObjectBaseEP7QObjectPPvPb@Base 0.30.0
 _ZN9QtPrivate11QSlotObjectIMN11nymeaserver13SystemHandlerEFvvENS_4ListIJEEEvE4implEiPNS_15QSlotObjectBaseEP7QObjectPPvPb@Base 0.30.0
 _ZN9QtPrivate11QSlotObjectIMN11nymeaserver13ZigbeeHandlerEFvRK5QUuidP10ZigbeeNodeENS_4ListIJS5_S7_EEEvE4implEiPNS_15QSlotObjectBaseEP7QObjectPPvPb@Base 0.30.0
 _ZN9QtPrivate11QSlotObjectIMN11nymeaserver14CloudTransportEFvN17remoteproxyclient21RemoteProxyConnection5StateEENS_4ListIJS5_EEEvE4implEiPNS_15QSlotObjectBaseEP7QObjectPPvPb@Base 0.30.0
 _ZN9QtPrivate11QSlotObjectIMN11nymeaserver14CloudTransportEFvRK10QByteArrayENS_4ListIJS5_EEEvE4implEiPNS_15QSlotObjectBaseEP7QObjectPPvPb@Base 0.30.0
 _ZN9QtPrivate11QSlotObjectIMN11nymeaserver14CloudTransportEFvRK7QStringS5_S5_ENS_4ListIJS5_S5_S5_EEEvE4implEiPNS_15QSlotObjectBaseEP7QObjectPPvPb@Base 0.30.0
 _ZN9QtPrivate11QSlotObjectIMN11nymeaserver14CloudTransportEFvvENS_4ListIJEEEvE4implEiPNS_15QSlotObjectBaseEP7QObjectPPvPb@Base 0.30.0
 _ZN9QtPrivate11QSlotObjectIMN11nymeaserver14LoggingHandlerEFvRKNS1_8LogEntryEENS_4ListIJS5_EEEvE4implEiPNS_15QSlotObjectBaseEP7QObjectPPvPb@Base 0.30.0
 _ZN9QtPrivate11QSlotObjectIMN11nymeaserver14LoggingHandlerEFvvENS_4ListIJEEEvE4implEiPNS_15QSlotObjectBaseEP7QObjectPPvPb@Base 0.30.0
 _ZN9QtPrivate11QSlotObjectIMN11nymeaserver15BluetoothServerEFvRKN21QBluetoothLocalDevice8HostModeEENS_4ListIJS4_EEEvE4implEiPNS_15QSlotObjectBaseEP7QObjectPPvPb@Base 0.30.0
 _ZN9QtPrivate11QSlotObjectIMN11nymeaserver15WebServerClientEFvvENS_4ListIJEEEvE4implEiPNS_15QSlotObjectBaseEP7QObjectPPvPb@Base 0.30.0
 _ZN9QtPrivate11QSlotObjectIMN11nymeaserver15WebSocketServerEFvN15QAbstractSocket11SocketErrorEENS_4ListIJS4_EEEvE4implEiPNS_15QSlotObjectBaseEP7QObjectPPvPb@Base 0.30.0
 _ZN9QtPrivate11QSlotObjectIMN11nymeaserver15WebSocketServerEFvvENS_4ListIJEEEvE4implEiPNS_15QSlotObjectBaseEP7QObjectPPvPb@Base 0.30.0
 _ZN9QtPrivate11QSlotObjectIMN11nymeaserver18DebugServerHandlerEFvbENS_4ListIJbEEEvE4implEiPNS_15QSlotObjectBaseEP7QObjectPPvPb@Base 0.30.0
 _ZN9QtPrivate11QSlotObjectIMN11nymeaserver18DebugServerHandlerEFvvENS_4ListIJEEEvE4implEiPNS_15QSlotObjectBaseEP7QObjectPPvPb@Base 0.30.0
 _ZN9QtPrivate11QSlotObjectIMN11nymeaserver19IntegrationsHandlerEFvP5ThingENS_4ListIJS4_EEEvE4implEiPNS_15QSlotObjectBaseEP7QObjectPPvPb@Base 0.30.0
 _ZN9QtPrivate11QSlotObjectIMN11nymeaserver19IntegrationsHandlerEFvP5ThingRK5QUuidRK8QVariantSA_SA_ENS_4ListIJS4_S7_SA_SA_SA_EEEvE4implEiPNS_15QSlotObjectBaseEP7QObjectPPvPb@Base 0.30.0
 _ZN9QtPrivate11QSlotObjectIMN11nymeaserver19IntegrationsHandlerEFvRK7ThingIdENS_4ListIJS5_EEEvE4implEiPNS_15QSlotObjectBaseEP7QObjectPPvPb@Base 0.30.0
 _ZN9QtPrivate11QSlotObjectIMN11nymeaserver19IntegrationsHandlerEFvRK7ThingIdRK11ParamTypeIdRK8QVariantENS_4ListIJS5_S8_SB_EEEvE4implEiPNS_15QSlotObjectBaseEP7QObjectPPvPb@Base 0.30.0
 _ZN9QtPrivate11QSlotObjectIMN11nymeaserver19IntegrationsHandlerEFvRK8PluginIdRK9ParamListENS_4ListIJS5_S8_EEEvE4implEiPNS_15QSlotObjectBaseEP7QObjectPPvPb@Base 0.30.0
 _ZN9QtPrivate11QSlotObjectIMN11nymeaserver20ConfigurationHandlerEFvRK7QStringENS_4ListIJS5_EEEvE4implEiPNS_15QSlotObjectBaseEP7QObjectPPvPb@Base 0.30.0
 _ZN9QtPrivate11QSlotObjectIMN11nymeaserver20ConfigurationHandlerEFvbENS_4ListIJbEEEvE4implEiPNS_15QSlotObjectBaseEP7QObjectPPvPb@Base 0.30.0
 _ZN9QtPrivate11QSlotObjectIMN11nymeaserver20ConfigurationHandlerEFvvENS_4ListIJEEEvE4implEiPNS_15QSlotObjectBaseEP7QObjectPPvPb@Base 0.30.0
 _ZN9QtPrivate11QSlotObjectIMN11nymeaserver20DebugReportGeneratorEFvvENS_4ListIJEEEvE4implEiPNS_15QSlotObjectBaseEP7QObjectPPvPb@Base 0.30.0
 _ZN9QtPrivate11QSlotObjectIMN11nymeaserver20Radio433BrennenstuhlEFvbENS_4ListIJRKbEEEvE4implEiPNS_15QSlotObjectBaseEP7QObjectPPvPb@Base 0.30.0
 _ZN9QtPrivate11QSlotObjectIMN11nymeaserver20ScriptInterfaceEventEFvRK5EventENS_4ListIJS5_EEEvE4implEiPNS_15QSlotObjectBaseEP7QObjectPPvPb@Base 0.30.0
 _ZN9QtPrivate11QSlotObjectIMN11nymeaserver20UpnpDiscoveryRequestEFvvENS_4ListIJEEEvE4implEiPNS_15QSlotObjectBaseEP7QObjectPPvPb@Base 0.30.0
 _ZN9QtPrivate11QSlotObjectIMN11nymeaserver21NetworkManagerHandlerEFvP18WiredNetworkDeviceENS_4ListIJS4_EEEvE4implEiPNS_15QSlotObjectBaseEP7QObjectPPvPb@Base 0.30.0
 _ZN9QtPrivate11QSlotObjectIMN11nymeaserver21NetworkManagerHandlerEFvP21WirelessNetworkDeviceENS_4ListIJS4_EEEvE4implEiPNS_15QSlotObjectBaseEP7QObjectPPvPb@Base 0.30.0
 _ZN9QtPrivate11QSlotObjectIMN11nymeaserver21NetworkManagerHandlerEFvRK7QStringENS_4ListIJS5_EEEvE4implEiPNS_15QSlotObjectBaseEP7QObjectPPvPb@Base 0.30.0
 _ZN9QtPrivate11QSlotObjectIMN11nymeaserver21NetworkManagerHandlerEFvvENS_4ListIJEEEvE4implEiPNS_15QSlotObjectBaseEP7QObjectPPvPb@Base 0.30.0
 _ZN9QtPrivate11QSlotObjectIMN11nymeaserver21PushButtonDBusServiceEFvRK7QStringENS_4ListIJS5_EEEvE4implEiPNS_15QSlotObjectBaseEP7QObjectPPvPb@Base 0.30.0
 _ZN9QtPrivate11QSlotObjectIMN11nymeaserver24I2CManagerImplementationEFvvENS_4ListIJEEEvE4implEiPNS_15QSlotObjectBaseEP7QObjectPPvPb@Base 0.30.0
 _ZN9QtPrivate11QSlotObjectIMN11nymeaserver24NetworkAccessManagerImplEFvvENS_4ListIJEEEvE4implEiPNS_15QSlotObjectBaseEP7QObjectPPvPb@Base 0.30.0
 _ZN9QtPrivate11QSlotObjectIMN11nymeaserver25PluginTimerImplementationEFvvENS_4ListIJEEEvE4implEiPNS_15QSlotObjectBaseEP7QObjectPPvPb@Base 0.30.0
 _ZN9QtPrivate11QSlotObjectIMN11nymeaserver26MqttProviderImplementationEFvRK7QStringENS_4ListIJS5_EEEvE4implEiPNS_15QSlotObjectBaseEP7QObjectPPvPb@Base 0.30.0
 _ZN9QtPrivate11QSlotObjectIMN11nymeaserver26MqttProviderImplementationEFvRK7QStringRK10QByteArrayENS_4ListIJS5_S8_EEEvE4implEiPNS_15QSlotObjectBaseEP7QObjectPPvPb@Base 0.30.0
 _ZN9QtPrivate11QSlotObjectIMN11nymeaserver26MqttProviderImplementationEFvRK7QStringS5_RK10QByteArrayENS_4ListIJS5_S5_S8_EEEvE4implEiPNS_15QSlotObjectBaseEP7QObjectPPvPb@Base 0.30.0
 _ZN9QtPrivate11QSlotObjectIMN11nymeaserver27JsonRPCServerImplementationEFv7QStringiRKS3_ENS_4ListIJS3_iS5_EEEvE4implEiPNS_15QSlotObjectBaseEP7QObjectPPvPb@Base 0.30.0
 _ZN9QtPrivate11QSlotObjectIMN11nymeaserver27JsonRPCServerImplementationEFvRK5QUuidENS_4ListIJS5_EEEvE4implEiPNS_15QSlotObjectBaseEP7QObjectPPvPb@Base 0.30.0
 _ZN9QtPrivate11QSlotObjectIMN11nymeaserver27JsonRPCServerImplementationEFvRK5QUuidRK10QByteArrayENS_4ListIJS5_S8_EEEvE4implEiPNS_15QSlotObjectBaseEP7QObjectPPvPb@Base 0.30.0
 _ZN9QtPrivate11QSlotObjectIMN11nymeaserver27JsonRPCServerImplementationEFvibRK10QByteArrayENS_4ListIJibS5_EEEvE4implEiPNS_15QSlotObjectBaseEP7QObjectPPvPb@Base 0.30.0
 _ZN9QtPrivate11QSlotObjectIMN11nymeaserver27JsonRPCServerImplementationEFvvENS_4ListIJEEEvE4implEiPNS_15QSlotObjectBaseEP7QObjectPPvPb@Base 0.30.0
 _ZN9QtPrivate11QSlotObjectIMN11nymeaserver27Radio433BrennenstuhlGatewayEFvvENS_4ListIJEEEvE4implEiPNS_15QSlotObjectBaseEP7QObjectPPvPb@Base 0.30.0
 _ZN9QtPrivate11QSlotObjectIMN11nymeaserver27UpnpDiscoveryImplementationEFvRK21QNetworkConfigurationENS_4ListIJS5_EEEvE4implEiPNS_15QSlotObjectBaseEP7QObjectPPvPb@Base 0.30.0
 _ZN9QtPrivate11QSlotObjectIMN11nymeaserver27UpnpDiscoveryImplementationEFvvENS_4ListIJEEEvE4implEiPNS_15QSlotObjectBaseEP7QObjectPPvPb@Base 0.30.0
 _ZN9QtPrivate11QSlotObjectIMN11nymeaserver36ZigbeeHardwareResourceImplementationEFvP13ZigbeeNetworkENS_4ListIJS4_EEEvE4implEiPNS_15QSlotObjectBaseEP7QObjectPPvPb@Base 0.30.0
 _ZN9QtPrivate11QSlotObjectIMN11nymeaserver36ZigbeeHardwareResourceImplementationEFvRK5QUuidP10ZigbeeNodeENS_4ListIJS5_S7_EEEvE4implEiPNS_15QSlotObjectBaseEP7QObjectPPvPb@Base 0.30.0
 _ZN9QtPrivate11QSlotObjectIMN11nymeaserver36ZigbeeHardwareResourceImplementationEFvbENS_4ListIJbEEEvE4implEiPNS_15QSlotObjectBaseEP7QObjectPPvPb@Base 0.30.0
 _ZN9QtPrivate11QSlotObjectIMN11nymeaserver38BluetoothLowEnergyDeviceImplementationEFvRKN20QLowEnergyController15ControllerStateEENS_4ListIJS4_EEEvE4implEiPNS_15QSlotObjectBaseEP7QObjectPPvPb@Base 0.30.0
 _ZN9QtPrivate11QSlotObjectIMN11nymeaserver38BluetoothLowEnergyDeviceImplementationEFvvENS_4ListIJEEEvE4implEiPNS_15QSlotObjectBaseEP7QObjectPPvPb@Base 0.30.0
 _ZN9QtPrivate11QSlotObjectIMN11nymeaserver39BluetoothLowEnergyManagerImplementationEFvRK20QBluetoothDeviceInfoENS_4ListIJS5_EEEvE4implEiPNS_15QSlotObjectBaseEP7QObjectPPvPb@Base 0.30.0
 _ZN9QtPrivate11QSlotObjectIMN11nymeaserver39BluetoothLowEnergyManagerImplementationEFvvENS_4ListIJEEEvE4implEiPNS_15QSlotObjectBaseEP7QObjectPPvPb@Base 0.30.0
 _ZN9QtPrivate11QSlotObjectIMN11nymeaserver9HttpReplyEFvvENS_4ListIJEEEvE4implEiPNS_15QSlotObjectBaseEP7QObjectPPvPb@Base 0.30.0
 _ZN9QtPrivate11QSlotObjectIMN11nymeaserver9HttpReplyEKFbvENS_4ListIJEEEvE4implEiPNS_15QSlotObjectBaseEP7QObjectPPvPb@Base 0.30.0
 _ZN9QtPrivate11QSlotObjectIMN11nymeaserver9LogEngineEFvRK5EventENS_4ListIJS5_EEEvE4implEiPNS_15QSlotObjectBaseEP7QObjectPPvPb@Base 0.30.0
 _ZN9QtPrivate11QSlotObjectIMN11nymeaserver9LogEngineEFvRK6ActionN5Thing10ThingErrorEENS_4ListIJS5_S7_EEEvE4implEiPNS_15QSlotObjectBaseEP7QObjectPPvPb@Base 0.30.0
 _ZN9QtPrivate11QSlotObjectIMN11nymeaserver9NymeaCoreEFvP5ThingENS_4ListIJS4_EEEvE4implEiPNS_15QSlotObjectBaseEP7QObjectPPvPb@Base 0.30.0
 _ZN9QtPrivate11QSlotObjectIMN11nymeaserver9NymeaCoreEFvP5ThingRK5QUuidRK8QVariantSA_SA_ENS_4ListIJS4_RK11StateTypeIdSA_SA_SA_EEEvE4implEiPNS_15QSlotObjectBaseEP7QObjectPPvPb@Base 0.30.0
 _ZN9QtPrivate11QSlotObjectIMN11nymeaserver9NymeaCoreEFvRK5EventENS_4ListIJS5_EEEvE4implEiPNS_15QSlotObjectBaseEP7QObjectPPvPb@Base 0.30.0
 _ZN9QtPrivate11QSlotObjectIMN11nymeaserver9NymeaCoreEFvRK6RuleIdENS_4ListIJS5_EEEvE4implEiPNS_15QSlotObjectBaseEP7QObjectPPvPb@Base 0.30.0
 _ZN9QtPrivate11QSlotObjectIMN11nymeaserver9NymeaCoreEFvRK7ThingIdENS_4ListIJS5_EEEvE4implEiPNS_15QSlotObjectBaseEP7QObjectPPvPb@Base 0.30.0
 _ZN9QtPrivate11QSlotObjectIMN11nymeaserver9NymeaCoreEFvRK7ThingIdRK11ParamTypeIdRK8QVariantENS_4ListIJS5_S8_SB_EEEvE4implEiPNS_15QSlotObjectBaseEP7QObjectPPvPb@Base 0.30.0
 _ZN9QtPrivate11QSlotObjectIMN11nymeaserver9NymeaCoreEFvRK8PluginIdRK9ParamListENS_4ListIJS5_S8_EEEvE4implEiPNS_15QSlotObjectBaseEP7QObjectPPvPb@Base 0.30.0
 _ZN9QtPrivate11QSlotObjectIMN11nymeaserver9NymeaCoreEFvRK9QDateTimeENS_4ListIJS5_EEEvE4implEiPNS_15QSlotObjectBaseEP7QObjectPPvPb@Base 0.30.0
 _ZN9QtPrivate11QSlotObjectIMN11nymeaserver9NymeaCoreEFvRKNS1_4RuleEENS_4ListIJS5_EEEvE4implEiPNS_15QSlotObjectBaseEP7QObjectPPvPb@Base 0.30.0
 _ZN9QtPrivate11QSlotObjectIMN11nymeaserver9NymeaCoreEFvvENS_4ListIJEEEvE4implEiPNS_15QSlotObjectBaseEP7QObjectPPvPb@Base 0.30.0
 _ZN9QtPrivate11QSlotObjectIMN11nymeaserver9SslServerEFvvENS_4ListIJEEEvE4implEiPNS_15QSlotObjectBaseEP7QObjectPPvPb@Base 0.30.0
 _ZN9QtPrivate11QSlotObjectIMN11nymeaserver9TcpServerEFvP10QSslSocketRK10QByteArrayENS_4ListIJS4_S7_EEEvE4implEiPNS_15QSlotObjectBaseEP7QObjectPPvPb@Base 0.30.0
 _ZN9QtPrivate11QSlotObjectIMN11nymeaserver9WebServerEFvvENS_4ListIJEEEvE4implEiPNS_15QSlotObjectBaseEP7QObjectPPvPb@Base 0.30.0
 _ZN9QtPrivate16ConverterFunctorI5QListIiEN17QtMetaTypePrivate23QSequentialIterableImplENS3_33QSequentialIterableConvertFunctorIS2_EEE7convertEPKNS_25AbstractConverterFunctionEPKvPv@Base 0.30.0
 _ZNK10RuleAction12actionTypeIdEv@Base 0.30.0
 _ZNK10RuleAction12isEventBasedEv@Base 0.30.0
 _ZNK10RuleAction12isStateBasedEv@Base 0.30.0
 _ZNK10RuleAction13browserItemIdEv@Base 0.30.0
 _ZNK10RuleAction15interfaceActionEv@Base 0.30.0
 _ZNK10RuleAction15ruleActionParamERK11ParamTypeId@Base 0.30.0
 _ZNK10RuleAction15ruleActionParamERK7QString@Base 0.30.0
 _ZNK10RuleAction16ruleActionParamsEv@Base 0.30.0
 _ZNK10RuleAction19toBrowserItemActionEv@Base 0.30.0
 _ZNK10RuleAction4typeEv@Base 0.30.0
 _ZNK10RuleAction7isValidEv@Base 0.30.0
 _ZNK10RuleAction7thingIdEv@Base 0.30.0
 _ZNK10RuleAction8toActionEv@Base 0.30.0
 _ZNK10RuleAction9interfaceEv@Base 0.30.0
 _ZNK11RuleActions3getEi@Base 0.30.0
 _ZNK11ScriptAlarm10metaObjectEv@Base 0.30.0
 _ZNK11ScriptAlarm4timeEv@Base 0.30.0
 _ZNK11ScriptAlarm5todayEv@Base 0.30.0
 _ZNK11ScriptAlarm6activeEv@Base 0.30.0
 _ZNK11ScriptAlarm7endTimeEv@Base 0.30.0
 _ZNK11ScriptAlarm8weekDaysEv@Base 0.30.0
 _ZNK11ScriptThing10metaObjectEv@Base 0.30.0
 _ZNK11nymeaserver10LogEntries3getEi@Base 0.30.0
 _ZNK11nymeaserver10MqttBroker10metaObjectEv@Base 0.30.0
 _ZNK11nymeaserver10MqttBroker14configurationsEv@Base 0.30.0
 _ZNK11nymeaserver10MqttBroker9isRunningERK7QString@Base 0.30.0
 _ZNK11nymeaserver10MqttBroker9isRunningEv@Base 0.30.0
 _ZNK11nymeaserver10RuleEngine10metaObjectEv@Base 0.30.0
 _ZNK11nymeaserver10RuleEngine13thingsInRulesEv@Base 0.30.0
 _ZNK11nymeaserver10RuleEngine5rulesEv@Base 0.30.0
 _ZNK11nymeaserver10RuleEngine7ruleIdsEv@Base 0.30.0
 _ZNK11nymeaserver10RuleEngine9findRulesERK7ThingId@Base 0.30.0
 _ZNK11nymeaserver11DatabaseJob10metaObjectEv@Base 0.30.0
 _ZNK11nymeaserver11HttpRequest10hasPayloadEv@Base 0.30.0
 _ZNK11nymeaserver11HttpRequest10isCompleteEv@Base 0.30.0
 _ZNK11nymeaserver11HttpRequest11httpVersionEv@Base 0.30.0
 _ZNK11nymeaserver11HttpRequest12methodStringEv@Base 0.30.0
 _ZNK11nymeaserver11HttpRequest13rawHeaderListEv@Base 0.30.0
 _ZNK11nymeaserver11HttpRequest3urlEv@Base 0.30.0
 _ZNK11nymeaserver11HttpRequest6methodEv@Base 0.30.0
 _ZNK11nymeaserver11HttpRequest7isValidEv@Base 0.30.0
 _ZNK11nymeaserver11HttpRequest7payloadEv@Base 0.30.0
 _ZNK11nymeaserver11HttpRequest8urlQueryEv@Base 0.30.0
 _ZNK11nymeaserver11HttpRequest9rawHeaderEv@Base 0.30.0
 _ZNK11nymeaserver11ScriptEvent10metaObjectEv@Base 0.30.0
 _ZNK11nymeaserver11ScriptEvent11eventTypeIdEv@Base 0.30.0
 _ZNK11nymeaserver11ScriptEvent7thingIdEv@Base 0.30.0
 _ZNK11nymeaserver11ScriptEvent9eventNameEv@Base 0.30.0
 _ZNK11nymeaserver11ScriptState10metaObjectEv@Base 0.30.0
 _ZNK11nymeaserver11ScriptState11stateTypeIdEv@Base 0.30.0
 _ZNK11nymeaserver11ScriptState12maximumValueEv@Base 0.30.0
 _ZNK11nymeaserver11ScriptState12minimumValueEv@Base 0.30.0
 _ZNK11nymeaserver11ScriptState5valueEv@Base 0.30.0
 _ZNK11nymeaserver11ScriptState7thingIdEv@Base 0.30.0
 _ZNK11nymeaserver11ScriptState9stateNameEv@Base 0.30.0
 _ZNK11nymeaserver11TagsHandler10metaObjectEv@Base 0.30.0
 _ZNK11nymeaserver11TagsHandler13statusToReplyENS_11TagsStorage8TagErrorE@Base 0.30.0
 _ZNK11nymeaserver11TagsHandler4nameEv@Base 0.30.0
 _ZNK11nymeaserver11TagsHandler6AddTagERK4QMapI7QString8QVariantE@Base 0.30.0
 _ZNK11nymeaserver11TagsHandler7GetTagsERK4QMapI7QString8QVariantE@Base 0.30.0
 _ZNK11nymeaserver11TagsHandler9RemoveTagERK4QMapI7QString8QVariantE@Base 0.30.0
 _ZNK11nymeaserver11TagsStorage10metaObjectEv@Base 0.30.0
 _ZNK11nymeaserver11TagsStorage4tagsERK6RuleId@Base 0.30.0
 _ZNK11nymeaserver11TagsStorage4tagsERK7ThingId@Base 0.30.0
 _ZNK11nymeaserver11TagsStorage4tagsEv@Base 0.30.0
 _ZNK11nymeaserver11TimeManager10metaObjectEv@Base 0.30.0
 _ZNK11nymeaserver11TimeManager15currentDateTimeEv@Base 0.30.0
 _ZNK11nymeaserver11UserManager10metaObjectEv@Base 0.30.0
 _ZNK11nymeaserver11UserManager12initRequiredEv@Base 0.30.0
 _ZNK11nymeaserver11UserManager13validateTokenERK10QByteArray@Base 0.30.0
 _ZNK11nymeaserver11UserManager16validatePasswordERK7QString@Base 0.30.0
 _ZNK11nymeaserver11UserManager16validateUsernameERK7QString@Base 0.30.0
 _ZNK11nymeaserver11UserManager23pushButtonAuthAvailableEv@Base 0.30.0
 _ZNK11nymeaserver11UserManager5usersEv@Base 0.30.0
 _ZNK11nymeaserver11UserManager6tokensERK7QString@Base 0.30.0
 _ZNK11nymeaserver11UserManager8userInfoERK10QByteArray@Base 0.30.0
 _ZNK11nymeaserver11UserManager9tokenInfoERK10QByteArray@Base 0.30.0
 _ZNK11nymeaserver11UserManager9tokenInfoERK5QUuid@Base 0.30.0
 _ZNK11nymeaserver12CloudManager10metaObjectEv@Base 0.30.0
 _ZNK11nymeaserver12CloudManager15connectionStateEv@Base 0.30.0
 _ZNK11nymeaserver12CloudManager24createTransportInterfaceEv@Base 0.30.0
 _ZNK11nymeaserver12CloudManager25createNotificationsPluginEv@Base 0.30.0
 _ZNK11nymeaserver12CloudManager7enabledEv@Base 0.30.0
 _ZNK11nymeaserver12DevicePlugin10metaObjectEv@Base 0.30.0
 _ZNK11nymeaserver12EventHandler10metaObjectEv@Base 0.30.0
 _ZNK11nymeaserver12EventHandler12GetEventTypeERK4QMapI7QString8QVariantERK11JsonContext@Base 0.30.0
 _ZNK11nymeaserver12EventHandler4nameEv@Base 0.30.0
 _ZNK11nymeaserver12RulesHandler10metaObjectEv@Base 0.30.0
 _ZNK11nymeaserver12RulesHandler4nameEv@Base 0.30.0
 _ZNK11nymeaserver12ScriptAction10actionNameEv@Base 0.30.0
 _ZNK11nymeaserver12ScriptAction10metaObjectEv@Base 0.30.0
 _ZNK11nymeaserver12ScriptAction12actionTypeIdEv@Base 0.30.0
 _ZNK11nymeaserver12ScriptAction13interfaceNameEv@Base 0.30.0
 _ZNK11nymeaserver12ScriptAction7thingIdEv@Base 0.30.0
 _ZNK11nymeaserver12ScriptEngine10metaObjectEv@Base 0.30.0
 _ZNK11nymeaserver12StateHandler10metaObjectEv@Base 0.30.0
 _ZNK11nymeaserver12StateHandler12GetStateTypeERK4QMapI7QString8QVariantERK11JsonContext@Base 0.30.0
 _ZNK11nymeaserver12StateHandler4nameEv@Base 0.30.0
 _ZNK11nymeaserver12UsersHandler10metaObjectEv@Base 0.30.0
 _ZNK11nymeaserver12UsersHandler4nameEv@Base 0.30.0
 _ZNK11nymeaserver13ActionHandler10metaObjectEv@Base 0.30.0
 _ZNK11nymeaserver13ActionHandler13GetActionTypeERK4QMapI7QString8QVariantERK11JsonContext@Base 0.30.0
 _ZNK11nymeaserver13ActionHandler4nameEv@Base 0.30.0
 _ZNK11nymeaserver13DeviceHandler10GetPluginsERK4QMapI7QString8QVariantERK11JsonContext@Base 0.30.0
 _ZNK11nymeaserver13DeviceHandler10metaObjectEv@Base 0.30.0
 _ZNK11nymeaserver13DeviceHandler11cacheHashesEv@Base 0.30.0
 _ZNK11nymeaserver13DeviceHandler12BrowseDeviceERK4QMapI7QString8QVariantERK11JsonContext@Base 0.30.0
 _ZNK11nymeaserver13DeviceHandler13GetEventTypesERK4QMapI7QString8QVariantERK11JsonContext@Base 0.30.0
 _ZNK11nymeaserver13DeviceHandler13GetStateTypesERK4QMapI7QString8QVariantERK11JsonContext@Base 0.30.0
 _ZNK11nymeaserver13DeviceHandler13GetStateValueERK4QMapI7QString8QVariantE@Base 0.30.0
 _ZNK11nymeaserver13DeviceHandler13statusToReplyEN5Thing10ThingErrorE@Base 0.30.0
 _ZNK11nymeaserver13DeviceHandler14GetActionTypesERK4QMapI7QString8QVariantERK11JsonContext@Base 0.30.0
 _ZNK11nymeaserver13DeviceHandler14GetBrowserItemERK4QMapI7QString8QVariantERK11JsonContext@Base 0.30.0
 _ZNK11nymeaserver13DeviceHandler14GetStateValuesERK4QMapI7QString8QVariantE@Base 0.30.0
 _ZNK11nymeaserver13DeviceHandler19GetSupportedDevicesERK4QMapI7QString8QVariantERK11JsonContext@Base 0.30.0
 _ZNK11nymeaserver13DeviceHandler19GetSupportedVendorsERK4QMapI7QString8QVariantERK11JsonContext@Base 0.30.0
 _ZNK11nymeaserver13DeviceHandler20GetConfiguredDevicesERK4QMapI7QString8QVariantERK11JsonContext@Base 0.30.0
 _ZNK11nymeaserver13DeviceHandler20GetDiscoveredDevicesERK4QMapI7QString8QVariantERK11JsonContext@Base 0.30.0
 _ZNK11nymeaserver13DeviceHandler22GetPluginConfigurationERK4QMapI7QString8QVariantE@Base 0.30.0
 _ZNK11nymeaserver13DeviceHandler4nameEv@Base 0.30.0
 _ZNK11nymeaserver13JsonValidator6resultEv@Base 0.30.0
 _ZNK11nymeaserver13MockTcpServer10metaObjectEv@Base 0.30.0
 _ZNK11nymeaserver13ServerManager10jsonServerEv@Base 0.30.0
 _ZNK11nymeaserver13ServerManager10metaObjectEv@Base 0.30.0
 _ZNK11nymeaserver13ServerManager10mqttBrokerEv@Base 0.30.0
 _ZNK11nymeaserver13ServerManager13mockTcpServerEv@Base 0.30.0
 _ZNK11nymeaserver13ServerManager15bluetoothServerEv@Base 0.30.0
 _ZNK11nymeaserver13SystemHandler10metaObjectEv@Base 0.30.0
 _ZNK11nymeaserver13SystemHandler11GetPackagesERK4QMapI7QString8QVariantE@Base 0.30.0
 _ZNK11nymeaserver13SystemHandler12GetTimeZonesERK4QMapI7QString8QVariantE@Base 0.30.0
 _ZNK11nymeaserver13SystemHandler13GetSystemInfoERK4QMapI7QString8QVariantE@Base 0.30.0
 _ZNK11nymeaserver13SystemHandler14RemovePackagesERK4QMapI7QString8QVariantE@Base 0.30.0
 _ZNK11nymeaserver13SystemHandler14UpdatePackagesERK4QMapI7QString8QVariantE@Base 0.30.0
 _ZNK11nymeaserver13SystemHandler15CheckForUpdatesERK4QMapI7QString8QVariantE@Base 0.30.0
 _ZNK11nymeaserver13SystemHandler15GetRepositoriesERK4QMapI7QString8QVariantE@Base 0.30.0
 _ZNK11nymeaserver13SystemHandler15GetUpdateStatusERK4QMapI7QString8QVariantE@Base 0.30.0
 _ZNK11nymeaserver13SystemHandler16EnableRepositoryERK4QMapI7QString8QVariantE@Base 0.30.0
 _ZNK11nymeaserver13SystemHandler16RollbackPackagesERK4QMapI7QString8QVariantE@Base 0.30.0
 _ZNK11nymeaserver13SystemHandler4nameEv@Base 0.30.0
 _ZNK11nymeaserver13SystemHandler6RebootERK4QMapI7QString8QVariantE@Base 0.30.0
 _ZNK11nymeaserver13SystemHandler7GetTimeERK4QMapI7QString8QVariantE@Base 0.30.0
 _ZNK11nymeaserver13SystemHandler7RestartERK4QMapI7QString8QVariantE@Base 0.30.0
 _ZNK11nymeaserver13SystemHandler7SetTimeERK4QMapI7QString8QVariantE@Base 0.30.0
 _ZNK11nymeaserver13SystemHandler8ShutdownERK4QMapI7QString8QVariantE@Base 0.30.0
 _ZNK11nymeaserver13TokenInfoList3getEi@Base 0.30.0
 _ZNK11nymeaserver13ZigbeeAdapter10serialPortEv@Base 0.30.0
 _ZNK11nymeaserver13ZigbeeAdapter11backendTypeEv@Base 0.30.0
 _ZNK11nymeaserver13ZigbeeAdapter11descriptionEv@Base 0.30.0
 _ZNK11nymeaserver13ZigbeeAdapter12serialNumberEv@Base 0.30.0
 _ZNK11nymeaserver13ZigbeeAdapter18hardwareRecognizedEv@Base 0.30.0
 _ZNK11nymeaserver13ZigbeeAdapter4nameEv@Base 0.30.0
 _ZNK11nymeaserver13ZigbeeAdapter7backendEv@Base 0.30.0
 _ZNK11nymeaserver13ZigbeeAdapter8baudRateEv@Base 0.30.0
 _ZNK11nymeaserver13ZigbeeAdaptereqERKS0_@Base 0.30.0
 _ZNK11nymeaserver13ZigbeeHandler10metaObjectEv@Base 0.30.0
 _ZNK11nymeaserver13ZigbeeHandler4nameEv@Base 0.30.0
 _ZNK11nymeaserver13ZigbeeManager10metaObjectEv@Base 0.30.0
 _ZNK11nymeaserver13ZigbeeManager14zigbeeNetworksEv@Base 0.30.0
 _ZNK11nymeaserver13ZigbeeManager17availableAdaptersEv@Base 0.30.0
 _ZNK11nymeaserver13ZigbeeManager7enabledEv@Base 0.30.0
 _ZNK11nymeaserver13ZigbeeManager9availableEv@Base 0.30.0
 _ZNK11nymeaserver14CloudTransport10metaObjectEv@Base 0.30.0
 _ZNK11nymeaserver14LoggingHandler10metaObjectEv@Base 0.30.0
 _ZNK11nymeaserver14LoggingHandler13GetLogEntriesERK4QMapI7QString8QVariantE@Base 0.30.0
 _ZNK11nymeaserver14LoggingHandler4nameEv@Base 0.30.0
 _ZNK11nymeaserver14ScriptsHandler10metaObjectEv@Base 0.30.0
 _ZNK11nymeaserver14ScriptsHandler4nameEv@Base 0.30.0
 _ZNK11nymeaserver14StateEvaluator12operatorTypeEv@Base 0.30.0
 _ZNK11nymeaserver14StateEvaluator13containsThingERK7ThingId@Base 0.30.0
 _ZNK11nymeaserver14StateEvaluator14dumpToSettingsER13NymeaSettingsRK7QString@Base 0.30.0
 _ZNK11nymeaserver14StateEvaluator15childEvaluatorsEv@Base 0.30.0
 _ZNK11nymeaserver14StateEvaluator15containedThingsEv@Base 0.30.0
 _ZNK11nymeaserver14StateEvaluator15stateDescriptorEv@Base 0.30.0
 _ZNK11nymeaserver14StateEvaluator18evaluateDescriptorERK15StateDescriptor@Base 0.30.0
 _ZNK11nymeaserver14StateEvaluator7isEmptyEv@Base 0.30.0
 _ZNK11nymeaserver14StateEvaluator7isValidEv@Base 0.30.0
 _ZNK11nymeaserver14StateEvaluator8evaluateEv@Base 0.30.0
 _ZNK11nymeaserver14ThingsFetchJob10metaObjectEv@Base 0.30.0
 _ZNK11nymeaserver14ZigbeeAdapters3getEi@Base 0.30.0
 _ZNK11nymeaserver15BluetoothServer10metaObjectEv@Base 0.30.0
 _ZNK11nymeaserver15StateEvaluators3getEi@Base 0.30.0
 _ZNK11nymeaserver15WebServerClient10metaObjectEv@Base 0.30.0
 _ZNK11nymeaserver15WebServerClient7addressEv@Base 0.30.0
 _ZNK11nymeaserver15WebSocketServer10metaObjectEv@Base 0.30.0
 _ZNK11nymeaserver15WebSocketServer9serverUrlEv@Base 0.30.0
 _ZNK11nymeaserver16ModbusRtuHandler10metaObjectEv@Base 0.30.0
 _ZNK11nymeaserver16ModbusRtuHandler4nameEv@Base 0.30.0
 _ZNK11nymeaserver16ModbusRtuManager10metaObjectEv@Base 0.30.0
 _ZNK11nymeaserver16ModbusRtuManager16modbusRtuMastersEv@Base 0.30.0
 _ZNK11nymeaserver16ModbusRtuManager17serialPortMonitorEv@Base 0.30.0
 _ZNK11nymeaserver16ModbusRtuManager18hasModbusRtuMasterERK5QUuid@Base 0.30.0
 _ZNK11nymeaserver16ModbusRtuManager9supportedEv@Base 0.30.0
 _ZNK11nymeaserver17ExperienceManager10metaObjectEv@Base 0.30.0
 _ZNK11nymeaserver17ExperienceManager16pluginSearchDirsEv@Base 0.30.0
 _ZNK11nymeaserver17SerialPortMonitor10metaObjectEv@Base 0.30.0
 _ZNK11nymeaserver17SerialPortMonitor11serialPortsEv@Base 0.30.0
 _ZNK11nymeaserver17SerialPortMonitor19serialPortAvailableERK7QString@Base 0.30.0
 _ZNK11nymeaserver18DebugServerHandler10metaObjectEv@Base 0.30.0
 _ZNK11nymeaserver18LogEntriesFetchJob10metaObjectEv@Base 0.30.0
 _ZNK11nymeaserver18ModbusRtuReplyImpl10isFinishedEv@Base 0.30.0
 _ZNK11nymeaserver18ModbusRtuReplyImpl10metaObjectEv@Base 0.30.0
 _ZNK11nymeaserver18ModbusRtuReplyImpl11errorStringEv@Base 0.30.0
 _ZNK11nymeaserver18ModbusRtuReplyImpl12slaveAddressEv@Base 0.30.0
 _ZNK11nymeaserver18ModbusRtuReplyImpl15registerAddressEv@Base 0.30.0
 _ZNK11nymeaserver18ModbusRtuReplyImpl5errorEv@Base 0.30.0
 _ZNK11nymeaserver18ModbusRtuReplyImpl6resultEv@Base 0.30.0
 _ZNK11nymeaserver18NymeaConfiguration10metaObjectEv@Base 0.30.0
 _ZNK11nymeaserver18NymeaConfiguration10serverNameEv@Base 0.30.0
 _ZNK11nymeaserver18NymeaConfiguration10serverUuidEv@Base 0.30.0
 _ZNK11nymeaserver18NymeaConfiguration11logDBDriverEv@Base 0.30.0
 _ZNK11nymeaserver18NymeaConfiguration12cloudEnabledEv@Base 0.30.0
 _ZNK11nymeaserver18NymeaConfiguration12mqttPoliciesEv@Base 0.30.0
 _ZNK11nymeaserver18NymeaConfiguration13logDBPasswordEv@Base 0.30.0
 _ZNK11nymeaserver18NymeaConfiguration14cloudServerUrlEv@Base 0.30.0
 _ZNK11nymeaserver18NymeaConfiguration14sslCertificateEv@Base 0.30.0
 _ZNK11nymeaserver18NymeaConfiguration15logDBMaxEntriesEv@Base 0.30.0
 _ZNK11nymeaserver18NymeaConfiguration16cloudCertificateEv@Base 0.30.0
 _ZNK11nymeaserver18NymeaConfiguration17sslCertificateKeyEv@Base 0.30.0
 _ZNK11nymeaserver18NymeaConfiguration18cloudCertificateCAEv@Base 0.30.0
 _ZNK11nymeaserver18NymeaConfiguration18debugServerEnabledEv@Base 0.30.0
 _ZNK11nymeaserver18NymeaConfiguration19cloudCertificateKeyEv@Base 0.30.0
 _ZNK11nymeaserver18NymeaConfiguration22bluetoothServerEnabledEv@Base 0.30.0
 _ZNK11nymeaserver18NymeaConfiguration23tcpServerConfigurationsEv@Base 0.30.0
 _ZNK11nymeaserver18NymeaConfiguration23webServerConfigurationsEv@Base 0.30.0
 _ZNK11nymeaserver18NymeaConfiguration24mqttServerConfigurationsEv@Base 0.30.0
 _ZNK11nymeaserver18NymeaConfiguration29webSocketServerConfigurationsEv@Base 0.30.0
 _ZNK11nymeaserver18NymeaConfiguration32defaultWebserverPublicFolderPathEv@Base 0.30.0
 _ZNK11nymeaserver18NymeaConfiguration6localeEv@Base 0.30.0
 _ZNK11nymeaserver18NymeaConfiguration8timeZoneEv@Base 0.30.0
 _ZNK11nymeaserver18NymeaConfiguration9logDBHostEv@Base 0.30.0
 _ZNK11nymeaserver18NymeaConfiguration9logDBNameEv@Base 0.30.0
 _ZNK11nymeaserver18NymeaConfiguration9logDBUserEv@Base 0.30.0
 _ZNK11nymeaserver18Radio433Trasmitter10metaObjectEv@Base 0.30.0
 _ZNK11nymeaserver18TransportInterface10metaObjectEv@Base 0.30.0
 _ZNK11nymeaserver18TransportInterface13configurationEv@Base 0.30.0
 _ZNK11nymeaserver19IntegrationsHandler10GetPluginsERK4QMapI7QString8QVariantERK11JsonContext@Base 0.30.0
 _ZNK11nymeaserver19IntegrationsHandler10GetVendorsERK4QMapI7QString8QVariantERK11JsonContext@Base 0.30.0
 _ZNK11nymeaserver19IntegrationsHandler10metaObjectEv@Base 0.30.0
 _ZNK11nymeaserver19IntegrationsHandler11BrowseThingERK4QMapI7QString8QVariantERK11JsonContext@Base 0.30.0
 _ZNK11nymeaserver19IntegrationsHandler11cacheHashesEv@Base 0.30.0
 _ZNK11nymeaserver19IntegrationsHandler13GetEventTypesERK4QMapI7QString8QVariantERK11JsonContext@Base 0.30.0
 _ZNK11nymeaserver19IntegrationsHandler13GetStateTypesERK4QMapI7QString8QVariantERK11JsonContext@Base 0.30.0
 _ZNK11nymeaserver19IntegrationsHandler13GetStateValueERK4QMapI7QString8QVariantE@Base 0.30.0
 _ZNK11nymeaserver19IntegrationsHandler13statusToReplyEN5Thing10ThingErrorE@Base 0.30.0
 _ZNK11nymeaserver19IntegrationsHandler14DiscoverThingsERK4QMapI7QString8QVariantERK11JsonContext@Base 0.30.0
 _ZNK11nymeaserver19IntegrationsHandler14GetActionTypesERK4QMapI7QString8QVariantERK11JsonContext@Base 0.30.0
 _ZNK11nymeaserver19IntegrationsHandler14GetBrowserItemERK4QMapI7QString8QVariantERK11JsonContext@Base 0.30.0
 _ZNK11nymeaserver19IntegrationsHandler14GetStateValuesERK4QMapI7QString8QVariantE@Base 0.30.0
 _ZNK11nymeaserver19IntegrationsHandler15GetThingClassesERK4QMapI7QString8QVariantERK11JsonContext@Base 0.30.0
 _ZNK11nymeaserver19IntegrationsHandler22GetPluginConfigurationERK4QMapI7QString8QVariantE@Base 0.30.0
 _ZNK11nymeaserver19IntegrationsHandler4nameEv@Base 0.30.0
 _ZNK11nymeaserver19IntegrationsHandler9GetThingsERK4QMapI7QString8QVariantERK11JsonContext@Base 0.30.0
 _ZNK11nymeaserver19ModbusRtuMasterImpl10metaObjectEv@Base 0.30.0
 _ZNK11nymeaserver19ModbusRtuMasterImpl10modbusUuidEv@Base 0.30.0
 _ZNK11nymeaserver19ModbusRtuMasterImpl10serialPortEv@Base 0.30.0
 _ZNK11nymeaserver19ModbusRtuMasterImpl15numberOfRetriesEv@Base 0.30.0
 _ZNK11nymeaserver19ModbusRtuMasterImpl6parityEv@Base 0.30.0
 _ZNK11nymeaserver19ModbusRtuMasterImpl7timeoutEv@Base 0.30.0
 _ZNK11nymeaserver19ModbusRtuMasterImpl8baudrateEv@Base 0.30.0
 _ZNK11nymeaserver19ModbusRtuMasterImpl8dataBitsEv@Base 0.30.0
 _ZNK11nymeaserver19ModbusRtuMasterImpl9connectedEv@Base 0.30.0
 _ZNK11nymeaserver20ConfigurationHandler10metaObjectEv@Base 0.30.0
 _ZNK11nymeaserver20ConfigurationHandler11SetLanguageERK4QMapI7QString8QVariantE@Base 0.30.0
 _ZNK11nymeaserver20ConfigurationHandler11SetTimeZoneERK4QMapI7QString8QVariantE@Base 0.30.0
 _ZNK11nymeaserver20ConfigurationHandler12GetTimeZonesERK4QMapI7QString8QVariantE@Base 0.30.0
 _ZNK11nymeaserver20ConfigurationHandler13SetMqttPolicyERK4QMapI7QString8QVariantE@Base 0.30.0
 _ZNK11nymeaserver20ConfigurationHandler13SetServerNameERK4QMapI7QString8QVariantE@Base 0.30.0
 _ZNK11nymeaserver20ConfigurationHandler13statusToReplyENS_18NymeaConfiguration18ConfigurationErrorE@Base 0.30.0
 _ZNK11nymeaserver20ConfigurationHandler15GetMqttPoliciesERK4QMapI7QString8QVariantE@Base 0.30.0
 _ZNK11nymeaserver20ConfigurationHandler15SetCloudEnabledERK4QMapI7QString8QVariantE@Base 0.30.0
 _ZNK11nymeaserver20ConfigurationHandler16DeleteMqttPolicyERK4QMapI7QString8QVariantE@Base 0.30.0
 _ZNK11nymeaserver20ConfigurationHandler17GetConfigurationsERK4QMapI7QString8QVariantE@Base 0.30.0
 _ZNK11nymeaserver20ConfigurationHandler21GetAvailableLanguagesERK4QMapI7QString8QVariantE@Base 0.30.0
 _ZNK11nymeaserver20ConfigurationHandler21SetDebugServerEnabledERK4QMapI7QString8QVariantE@Base 0.30.0
 _ZNK11nymeaserver20ConfigurationHandler25SetTcpServerConfigurationERK4QMapI7QString8QVariantE@Base 0.30.0
 _ZNK11nymeaserver20ConfigurationHandler25SetWebServerConfigurationERK4QMapI7QString8QVariantE@Base 0.30.0
 _ZNK11nymeaserver20ConfigurationHandler26SetMqttServerConfigurationERK4QMapI7QString8QVariantE@Base 0.30.0
 _ZNK11nymeaserver20ConfigurationHandler27GetMqttServerConfigurationsERK4QMapI7QString8QVariantE@Base 0.30.0
 _ZNK11nymeaserver20ConfigurationHandler28DeleteTcpServerConfigurationERK4QMapI7QString8QVariantE@Base 0.30.0
 _ZNK11nymeaserver20ConfigurationHandler28DeleteWebServerConfigurationERK4QMapI7QString8QVariantE@Base 0.30.0
 _ZNK11nymeaserver20ConfigurationHandler29DeleteMqttServerConfigurationERK4QMapI7QString8QVariantE@Base 0.30.0
 _ZNK11nymeaserver20ConfigurationHandler31SetWebSocketServerConfigurationERK4QMapI7QString8QVariantE@Base 0.30.0
 _ZNK11nymeaserver20ConfigurationHandler34DeleteWebSocketServerConfigurationERK4QMapI7QString8QVariantE@Base 0.30.0
 _ZNK11nymeaserver20ConfigurationHandler4nameEv@Base 0.30.0
 _ZNK11nymeaserver20DebugReportGenerator10metaObjectEv@Base 0.30.0
 _ZNK11nymeaserver20DebugReportGenerator14reportFileDataEv@Base 0.30.0
 _ZNK11nymeaserver20DebugReportGenerator6md5SumEv@Base 0.30.0
 _ZNK11nymeaserver20DebugReportGenerator7isReadyEv@Base 0.30.0
 _ZNK11nymeaserver20DebugReportGenerator7isValidEv@Base 0.30.0
 _ZNK11nymeaserver20Radio433Brennenstuhl10metaObjectEv@Base 0.30.0
 _ZNK11nymeaserver20Radio433Brennenstuhl7enabledEv@Base 0.30.0
 _ZNK11nymeaserver20Radio433Brennenstuhl9availableEv@Base 0.30.0
 _ZNK11nymeaserver20ScriptInterfaceEvent10metaObjectEv@Base 0.30.0
 _ZNK11nymeaserver20ScriptInterfaceEvent13interfaceNameEv@Base 0.30.0
 _ZNK11nymeaserver20ScriptInterfaceEvent9eventNameEv@Base 0.30.0
 _ZNK11nymeaserver20UpnpDiscoveryRequest10deviceListEv@Base 0.30.0
 _ZNK11nymeaserver20UpnpDiscoveryRequest10metaObjectEv@Base 0.30.0
 _ZNK11nymeaserver21NetworkManagerHandler10metaObjectEv@Base 0.30.0
 _ZNK11nymeaserver21NetworkManagerHandler13statusToReplyEN14NetworkManager19NetworkManagerErrorE@Base 0.30.0
 _ZNK11nymeaserver21NetworkManagerHandler4nameEv@Base 0.30.0
 _ZNK11nymeaserver21PushButtonDBusService10metaObjectEv@Base 0.30.0
 _ZNK11nymeaserver21PushButtonDBusService14agentAvailableEv@Base 0.30.0
 _ZNK11nymeaserver21ScriptInterfaceAction10actionNameEv@Base 0.30.0
 _ZNK11nymeaserver21ScriptInterfaceAction10metaObjectEv@Base 0.30.0
 _ZNK11nymeaserver21ScriptInterfaceAction13interfaceNameEv@Base 0.30.0
 _ZNK11nymeaserver24I2CManagerImplementation10metaObjectEv@Base 0.30.0
 _ZNK11nymeaserver24I2CManagerImplementation14availablePortsEv@Base 0.30.0
 _ZNK11nymeaserver24NetworkAccessManagerImpl10metaObjectEv@Base 0.30.0
 _ZNK11nymeaserver24NetworkAccessManagerImpl7enabledEv@Base 0.30.0
 _ZNK11nymeaserver24NetworkAccessManagerImpl9availableEv@Base 0.30.0
 _ZNK11nymeaserver25MqttChannelImplementation10metaObjectEv@Base 0.30.0
 _ZNK11nymeaserver25MqttChannelImplementation10serverPortEv@Base 0.30.0
 _ZNK11nymeaserver25MqttChannelImplementation13serverAddressEv@Base 0.30.0
 _ZNK11nymeaserver25MqttChannelImplementation15topicPrefixListEv@Base 0.30.0
 _ZNK11nymeaserver25MqttChannelImplementation8clientIdEv@Base 0.30.0
 _ZNK11nymeaserver25MqttChannelImplementation8passwordEv@Base 0.30.0
 _ZNK11nymeaserver25MqttChannelImplementation8usernameEv@Base 0.30.0
 _ZNK11nymeaserver25PluginTimerImplementation10metaObjectEv@Base 0.30.0
 _ZNK11nymeaserver25PluginTimerImplementation11currentTickEv@Base 0.30.0
 _ZNK11nymeaserver25PluginTimerImplementation7runningEv@Base 0.30.0
 _ZNK11nymeaserver25PluginTimerImplementation8intervalEv@Base 0.30.0
 _ZNK11nymeaserver26MqttProviderImplementation10metaObjectEv@Base 0.30.0
 _ZNK11nymeaserver26MqttProviderImplementation7enabledEv@Base 0.30.0
 _ZNK11nymeaserver26MqttProviderImplementation9availableEv@Base 0.30.0
 _ZNK11nymeaserver27JsonRPCServerImplementation10IntrospectERK4QMapI7QString8QVariantE@Base 0.30.0
 _ZNK11nymeaserver27JsonRPCServerImplementation10metaObjectEv@Base 0.30.0
 _ZNK11nymeaserver27JsonRPCServerImplementation20createWelcomeMessageEPNS_18TransportInterfaceERK5QUuid@Base 0.30.0
 _ZNK11nymeaserver27JsonRPCServerImplementation4nameEv@Base 0.30.0
 _ZNK11nymeaserver27JsonRPCServerImplementation6TokensERK4QMapI7QString8QVariantERK11JsonContext@Base 0.30.0
 _ZNK11nymeaserver27JsonRPCServerImplementation7VersionERK4QMapI7QString8QVariantE@Base 0.30.0
 _ZNK11nymeaserver27JsonRPCServerImplementation8handlersEv@Base 0.30.0
 _ZNK11nymeaserver27Radio433BrennenstuhlGateway10metaObjectEv@Base 0.30.0
 _ZNK11nymeaserver27UpnpDiscoveryImplementation10metaObjectEv@Base 0.30.0
 _ZNK11nymeaserver27UpnpDiscoveryImplementation7enabledEv@Base 0.30.0
 _ZNK11nymeaserver27UpnpDiscoveryImplementation9availableEv@Base 0.30.0
 _ZNK11nymeaserver29HardwareManagerImplementation10metaObjectEv@Base 0.30.0
 _ZNK11nymeaserver32PluginTimerManagerImplementation10metaObjectEv@Base 0.30.0
 _ZNK11nymeaserver32PluginTimerManagerImplementation7enabledEv@Base 0.30.0
 _ZNK11nymeaserver32PluginTimerManagerImplementation9availableEv@Base 0.30.0
 _ZNK11nymeaserver32UpnpDiscoveryReplyImplementation10isFinishedEv@Base 0.30.0
 _ZNK11nymeaserver32UpnpDiscoveryReplyImplementation10metaObjectEv@Base 0.30.0
 _ZNK11nymeaserver32UpnpDiscoveryReplyImplementation12searchTargetEv@Base 0.30.0
 _ZNK11nymeaserver32UpnpDiscoveryReplyImplementation17deviceDescriptorsEv@Base 0.30.0
 _ZNK11nymeaserver32UpnpDiscoveryReplyImplementation5errorEv@Base 0.30.0
 _ZNK11nymeaserver32UpnpDiscoveryReplyImplementation9userAgentEv@Base 0.30.0
 _ZNK11nymeaserver36ZigbeeHardwareResourceImplementation10metaObjectEv@Base 0.30.0
 _ZNK11nymeaserver36ZigbeeHardwareResourceImplementation7enabledEv@Base 0.30.0
 _ZNK11nymeaserver36ZigbeeHardwareResourceImplementation9availableEv@Base 0.30.0
 _ZNK11nymeaserver37BluetoothDiscoveryReplyImplementation10isFinishedEv@Base 0.30.0
 _ZNK11nymeaserver37BluetoothDiscoveryReplyImplementation10metaObjectEv@Base 0.30.0
 _ZNK11nymeaserver37BluetoothDiscoveryReplyImplementation17discoveredDevicesEv@Base 0.30.0
 _ZNK11nymeaserver37BluetoothDiscoveryReplyImplementation5errorEv@Base 0.30.0
 _ZNK11nymeaserver38BluetoothLowEnergyDeviceImplementation10controllerEv@Base 0.30.0
 _ZNK11nymeaserver38BluetoothLowEnergyDeviceImplementation10discoveredEv@Base 0.30.0
 _ZNK11nymeaserver38BluetoothLowEnergyDeviceImplementation10metaObjectEv@Base 0.30.0
 _ZNK11nymeaserver38BluetoothLowEnergyDeviceImplementation12serviceUuidsEv@Base 0.30.0
 _ZNK11nymeaserver38BluetoothLowEnergyDeviceImplementation14autoConnectingEv@Base 0.30.0
 _ZNK11nymeaserver38BluetoothLowEnergyDeviceImplementation4nameEv@Base 0.30.0
 _ZNK11nymeaserver38BluetoothLowEnergyDeviceImplementation7addressEv@Base 0.30.0
 _ZNK11nymeaserver38BluetoothLowEnergyDeviceImplementation9connectedEv@Base 0.30.0
 _ZNK11nymeaserver39BluetoothLowEnergyManagerImplementation10metaObjectEv@Base 0.30.0
 _ZNK11nymeaserver39BluetoothLowEnergyManagerImplementation7enabledEv@Base 0.30.0
 _ZNK11nymeaserver39BluetoothLowEnergyManagerImplementation9availableEv@Base 0.30.0
 _ZNK11nymeaserver39ModbusRtuHardwareResourceImplementation10metaObjectEv@Base 0.30.0
 _ZNK11nymeaserver39ModbusRtuHardwareResourceImplementation16modbusRtuMastersEv@Base 0.30.0
 _ZNK11nymeaserver39ModbusRtuHardwareResourceImplementation18getModbusRtuMasterERK5QUuid@Base 0.30.0
 _ZNK11nymeaserver39ModbusRtuHardwareResourceImplementation18hasModbusRtuMasterERK5QUuid@Base 0.30.0
 _ZNK11nymeaserver39ModbusRtuHardwareResourceImplementation7enabledEv@Base 0.30.0
 _ZNK11nymeaserver39ModbusRtuHardwareResourceImplementation9availableEv@Base 0.30.0
 _ZNK11nymeaserver3Tag5appIdEv@Base 0.30.0
 _ZNK11nymeaserver3Tag5tagIdEv@Base 0.30.0
 _ZNK11nymeaserver3Tag5valueEv@Base 0.30.0
 _ZNK11nymeaserver3Tag6ruleIdEv@Base 0.30.0
 _ZNK11nymeaserver3Tag7thingIdEv@Base 0.30.0
 _ZNK11nymeaserver3TageqERKS0_@Base 0.30.0
 _ZNK11nymeaserver4Rule10executableEv@Base 0.30.0
 _ZNK11nymeaserver4Rule10timeActiveEv@Base 0.30.0
 _ZNK11nymeaserver4Rule11exitActionsEv@Base 0.30.0
 _ZNK11nymeaserver4Rule12isConsistentEv@Base 0.30.0
 _ZNK11nymeaserver4Rule12statesActiveEv@Base 0.30.0
 _ZNK11nymeaserver4Rule14stateEvaluatorEv@Base 0.30.0
 _ZNK11nymeaserver4Rule14timeDescriptorEv@Base 0.30.0
 _ZNK11nymeaserver4Rule16eventDescriptorsEv@Base 0.30.0
 _ZNK11nymeaserver4Rule2idEv@Base 0.30.0
 _ZNK11nymeaserver4Rule4nameEv@Base 0.30.0
 _ZNK11nymeaserver4Rule6activeEv@Base 0.30.0
 _ZNK11nymeaserver4Rule7actionsEv@Base 0.30.0
 _ZNK11nymeaserver4Rule7enabledEv@Base 0.30.0
 _ZNK11nymeaserver4Rule7isValidEv@Base 0.30.0
 _ZNK11nymeaserver4Tags3getEi@Base 0.30.0
 _ZNK11nymeaserver5Rules3getEi@Base 0.30.0
 _ZNK11nymeaserver6Device10metaObjectEv@Base 0.30.0
 _ZNK11nymeaserver6Device13deviceClassIdEv@Base 0.30.0
 _ZNK11nymeaserver6Script2idEv@Base 0.30.0
 _ZNK11nymeaserver6Script4nameEv@Base 0.30.0
 _ZNK11nymeaserver8LogEntry5levelEv@Base 0.30.0
 _ZNK11nymeaserver8LogEntry5valueEv@Base 0.30.0
 _ZNK11nymeaserver8LogEntry6activeEv@Base 0.30.0
 _ZNK11nymeaserver8LogEntry6sourceEv@Base 0.30.0
 _ZNK11nymeaserver8LogEntry6typeIdEv@Base 0.30.0
 _ZNK11nymeaserver8LogEntry7thingIdEv@Base 0.30.0
 _ZNK11nymeaserver8LogEntry9errorCodeEv@Base 0.30.0
 _ZNK11nymeaserver8LogEntry9eventTypeEv@Base 0.30.0
 _ZNK11nymeaserver8LogEntry9timestampEv@Base 0.30.0
 _ZNK11nymeaserver8Platform10metaObjectEv@Base 0.30.0
 _ZNK11nymeaserver8Platform16pluginSearchDirsEv@Base 0.30.0
 _ZNK11nymeaserver8Platform16systemControllerEv@Base 0.30.0
 _ZNK11nymeaserver8Platform16updateControllerEv@Base 0.30.0
 _ZNK11nymeaserver8Platform18zeroConfControllerEv@Base 0.30.0
 _ZNK11nymeaserver9HttpReply10metaObjectEv@Base 0.30.0
 _ZNK11nymeaserver9HttpReply13rawHeaderListEv@Base 0.30.0
 _ZNK11nymeaserver9HttpReply14httpStatusCodeEv@Base 0.30.0
 _ZNK11nymeaserver9HttpReply15closeConnectionEv@Base 0.30.0
 _ZNK11nymeaserver9HttpReply16httpReasonPhraseEv@Base 0.30.0
 _ZNK11nymeaserver9HttpReply4dataEv@Base 0.30.0
 _ZNK11nymeaserver9HttpReply4typeEv@Base 0.30.0
 _ZNK11nymeaserver9HttpReply7isEmptyEv@Base 0.30.0
 _ZNK11nymeaserver9HttpReply7payloadEv@Base 0.30.0
 _ZNK11nymeaserver9HttpReply8clientIdEv@Base 0.30.0
 _ZNK11nymeaserver9HttpReply8timedOutEv@Base 0.30.0
 _ZNK11nymeaserver9HttpReply9rawHeaderEv@Base 0.30.0
 _ZNK11nymeaserver9LogEngine10metaObjectEv@Base 0.30.0
 _ZNK11nymeaserver9LogEngine11jobsRunningEv@Base 0.30.0
 _ZNK11nymeaserver9LogFilter11queryStringEv@Base 0.30.0
 _ZNK11nymeaserver9LogFilter11timeFiltersEv@Base 0.30.0
 _ZNK11nymeaserver9LogFilter13loggingLevelsEv@Base 0.30.0
 _ZNK11nymeaserver9LogFilter14loggingSourcesEv@Base 0.30.0
 _ZNK11nymeaserver9LogFilter16createDateStringEv@Base 0.30.0
 _ZNK11nymeaserver9LogFilter17loggingEventTypesEv@Base 0.30.0
 _ZNK11nymeaserver9LogFilter18createLevelsStringEv@Base 0.30.0
 _ZNK11nymeaserver9LogFilter18createValuesStringEv@Base 0.30.0
 _ZNK11nymeaserver9LogFilter19createSourcesStringEv@Base 0.30.0
 _ZNK11nymeaserver9LogFilter19createThingIdStringEv@Base 0.30.0
 _ZNK11nymeaserver9LogFilter19createTypeIdsStringEv@Base 0.30.0
 _ZNK11nymeaserver9LogFilter22createEventTypesStringEv@Base 0.30.0
 _ZNK11nymeaserver9LogFilter22createTimeFilterStringE5QPairI9QDateTimeS2_E@Base 0.30.0
 _ZNK11nymeaserver9LogFilter5limitEv@Base 0.30.0
 _ZNK11nymeaserver9LogFilter6offsetEv@Base 0.30.0
 _ZNK11nymeaserver9LogFilter6valuesEv@Base 0.30.0
 _ZNK11nymeaserver9LogFilter7isEmptyEv@Base 0.30.0
 _ZNK11nymeaserver9LogFilter7typeIdsEv@Base 0.30.0
 _ZNK11nymeaserver9LogFilter8thingIdsEv@Base 0.30.0
 _ZNK11nymeaserver9NymeaCore10metaObjectEv@Base 0.30.0
 _ZNK11nymeaserver9NymeaCore10ruleEngineEv@Base 0.30.0
 _ZNK11nymeaserver9NymeaCore11tagsStorageEv@Base 0.30.0
 _ZNK11nymeaserver9NymeaCore11timeManagerEv@Base 0.30.0
 _ZNK11nymeaserver9NymeaCore11userManagerEv@Base 0.30.0
 _ZNK11nymeaserver9NymeaCore12cloudManagerEv@Base 0.30.0
 _ZNK11nymeaserver9NymeaCore12scriptEngineEv@Base 0.30.0
 _ZNK11nymeaserver9NymeaCore12thingManagerEv@Base 0.30.0
 _ZNK11nymeaserver9NymeaCore13configurationEv@Base 0.30.0
 _ZNK11nymeaserver9NymeaCore13jsonRPCServerEv@Base 0.30.0
 _ZNK11nymeaserver9NymeaCore13serverManagerEv@Base 0.30.0
 _ZNK11nymeaserver9NymeaCore13zigbeeManagerEv@Base 0.30.0
 _ZNK11nymeaserver9NymeaCore14networkManagerEv@Base 0.30.0
 _ZNK11nymeaserver9NymeaCore15bluetoothServerEv@Base 0.30.0
 _ZNK11nymeaserver9NymeaCore16modbusRtuManagerEv@Base 0.30.0
 _ZNK11nymeaserver9NymeaCore18debugServerHandlerEv@Base 0.30.0
 _ZNK11nymeaserver9NymeaCore8platformEv@Base 0.30.0
 _ZNK11nymeaserver9NymeaCore9logEngineEv@Base 0.30.0
 _ZNK11nymeaserver9SslServer10metaObjectEv@Base 0.30.0
 _ZNK11nymeaserver9TcpServer10metaObjectEv@Base 0.30.0
 _ZNK11nymeaserver9TcpServer9serverUrlEv@Base 0.30.0
 _ZNK11nymeaserver9TokenInfo10deviceNameEv@Base 0.30.0
 _ZNK11nymeaserver9TokenInfo12creationTimeEv@Base 0.30.0
 _ZNK11nymeaserver9TokenInfo2idEv@Base 0.30.0
 _ZNK11nymeaserver9TokenInfo8usernameEv@Base 0.30.0
 _ZNK11nymeaserver9WebServer10metaObjectEv@Base 0.30.0
 _ZNK11nymeaserver9WebServer13configurationEv@Base 0.30.0
 _ZNK11nymeaserver9WebServer9serverUrlEv@Base 0.30.0
 _ZNK12AWSConnector10metaObjectEv@Base 0.30.0
 _ZNK12AWSConnector11isConnectedEv@Base 0.30.0
 _ZNK12AWSConnector18readRegisteredFlagEv@Base 0.30.0
 _ZNK12AWSConnector25getCertificateFingerprintERK15QSslCertificate@Base 0.30.0
 _ZNK12LogValueTool10metaObjectEv@Base 0.30.0
 _ZNK14AppDataHandler10metaObjectEv@Base 0.30.0
 _ZNK14AppDataHandler4nameEv@Base 0.30.0
 _ZNK15RuleActionParam11eventTypeIdEv@Base 0.30.0
 _ZNK15RuleActionParam11paramTypeIdEv@Base 0.30.0
 _ZNK15RuleActionParam11stateTypeIdEv@Base 0.30.0
 _ZNK15RuleActionParam12isEventBasedEv@Base 0.30.0
 _ZNK15RuleActionParam12isStateBasedEv@Base 0.30.0
 _ZNK15RuleActionParam12isValueBasedEv@Base 0.30.0
 _ZNK15RuleActionParam12stateThingIdEv@Base 0.30.0
 _ZNK15RuleActionParam16eventParamTypeIdEv@Base 0.30.0
 _ZNK15RuleActionParam5valueEv@Base 0.30.0
 _ZNK15RuleActionParam7isValidEv@Base 0.30.0
 _ZNK15RuleActionParam9paramNameEv@Base 0.30.0
 _ZNK16RuleActionParams10paramValueERK11ParamTypeId@Base 0.30.0
 _ZNK16RuleActionParams3getEi@Base 0.30.0
 _ZNK16RuleActionParams8hasParamERK11ParamTypeId@Base 0.30.0
 _ZNK16RuleActionParams8hasParamERK7QString@Base 0.30.0
 _ZNK18CloudNotifications10metaObjectEv@Base 0.30.0
 _ZNK20ScriptThingSetupInfo10metaObjectEv@Base 0.30.0
 _ZNK21ScriptThingActionInfo10metaObjectEv@Base 0.30.0
 _ZNK22ApiKeysProvidersLoader10allApiKeysEv@Base 0.30.0
 _ZNK22ApiKeysProvidersLoader10metaObjectEv@Base 0.30.0
 _ZNK22ApiKeysProvidersLoader16pluginSearchDirsEv@Base 0.30.0
 _ZNK22ScriptThingPairingInfo10metaObjectEv@Base 0.30.0
 _ZNK23PythonIntegrationPlugin10metaObjectEv@Base 0.30.0
 _ZNK23ScriptIntegrationPlugin10metaObjectEv@Base 0.30.0
 _ZNK24ScriptThingDiscoveryInfo10metaObjectEv@Base 0.30.0
 _ZNK26ThingManagerImplementation10findChildsERK7ThingId@Base 0.30.0
 _ZNK26ThingManagerImplementation10metaObjectEv@Base 0.30.0
 _ZNK26ThingManagerImplementation13ioConnectionsERK7ThingId@Base 0.30.0
 _ZNK26ThingManagerImplementation14findThingClassERK12ThingClassId@Base 0.30.0
 _ZNK26ThingManagerImplementation15supportedThingsERK8VendorId@Base 0.30.0
 _ZNK26ThingManagerImplementation16configuredThingsEv@Base 0.30.0
 _ZNK26ThingManagerImplementation16supportedVendorsEv@Base 0.30.0
 _ZNK26ThingManagerImplementation19findConfiguredThingERK7ThingId@Base 0.30.0
 _ZNK26ThingManagerImplementation19supportedInterfacesEv@Base 0.30.0
 _ZNK26ThingManagerImplementation20findConfiguredThingsERK12ThingClassId@Base 0.30.0
 _ZNK26ThingManagerImplementation20findConfiguredThingsERK7QString@Base 0.30.0
 _ZNK26ThingManagerImplementation6pluginERK8PluginId@Base 0.30.0
 _ZNK26ThingManagerImplementation7pluginsEv@Base 0.30.0
 _ZNK26ThingManagerImplementation8mapValueERK8QVariantRK9StateTypeS5_b@Base 0.30.0
 _ZNK8UserInfo8usernameEv@Base 0.30.0
 _ZTI11ScriptAlarm@Base 0.30.0
 _ZTI11ScriptThing@Base 0.30.0
 _ZTI12AWSConnector@Base 0.30.0
 _ZTI12LogValueTool@Base 0.30.0
 _ZTI12QDBusContext@Base 0.30.0
 _ZTI13JsonRPCServer@Base 0.30.0
 _ZTI14AppDataHandler@Base 0.30.0
 _ZTI14MqttAuthorizer@Base 0.30.0
 _ZTI16QFutureInterfaceIPN11nymeaserver11DatabaseJobEE@Base 0.30.0
 _ZTI16QFutureInterfaceIvE@Base 0.30.0
 _ZTI18CloudNotifications@Base 0.30.0
 _ZTI20ScriptThingSetupInfo@Base 0.30.0
 _ZTI21ScriptThingActionInfo@Base 0.30.0
 _ZTI22ApiKeysProvidersLoader@Base 0.30.0
 _ZTI22ScriptThingPairingInfo@Base 0.30.0
 _ZTI23PythonIntegrationPlugin@Base 0.30.0
 _ZTI23ScriptIntegrationPlugin@Base 0.30.0
 _ZTI24ScriptThingDiscoveryInfo@Base 0.30.0
 _ZTI26ThingManagerImplementation@Base 0.30.0
 _ZTIN11nymeaserver10MqttBrokerE@Base 0.30.0
 _ZTIN11nymeaserver10RuleEngineE@Base 0.30.0
 _ZTIN11nymeaserver11DatabaseJobE@Base 0.30.0
 _ZTIN11nymeaserver11ScriptEventE@Base 0.30.0
 _ZTIN11nymeaserver11ScriptStateE@Base 0.30.0
 _ZTIN11nymeaserver11TagsHandlerE@Base 0.30.0
 _ZTIN11nymeaserver11TagsStorageE@Base 0.30.0
 _ZTIN11nymeaserver11TimeManagerE@Base 0.30.0
 _ZTIN11nymeaserver11UserManagerE@Base 0.30.0
 _ZTIN11nymeaserver12CloudManagerE@Base 0.30.0
 _ZTIN11nymeaserver12DevicePluginE@Base 0.30.0
 _ZTIN11nymeaserver12EventHandlerE@Base 0.30.0
 _ZTIN11nymeaserver12RulesHandlerE@Base 0.30.0
 _ZTIN11nymeaserver12ScriptActionE@Base 0.30.0
 _ZTIN11nymeaserver12ScriptEngineE@Base 0.30.0
 _ZTIN11nymeaserver12StateHandlerE@Base 0.30.0
 _ZTIN11nymeaserver12UsersHandlerE@Base 0.30.0
 _ZTIN11nymeaserver13ActionHandlerE@Base 0.30.0
 _ZTIN11nymeaserver13DeviceHandlerE@Base 0.30.0
 _ZTIN11nymeaserver13MockTcpServerE@Base 0.30.0
 _ZTIN11nymeaserver13ServerManagerE@Base 0.30.0
 _ZTIN11nymeaserver13SystemHandlerE@Base 0.30.0
 _ZTIN11nymeaserver13ZigbeeHandlerE@Base 0.30.0
 _ZTIN11nymeaserver13ZigbeeManagerE@Base 0.30.0
 _ZTIN11nymeaserver14CloudTransportE@Base 0.30.0
 _ZTIN11nymeaserver14LoggingHandlerE@Base 0.30.0
 _ZTIN11nymeaserver14ScriptsHandlerE@Base 0.30.0
 _ZTIN11nymeaserver14ThingsFetchJobE@Base 0.30.0
 _ZTIN11nymeaserver15BluetoothServerE@Base 0.30.0
 _ZTIN11nymeaserver15WebServerClientE@Base 0.30.0
 _ZTIN11nymeaserver15WebSocketServerE@Base 0.30.0
 _ZTIN11nymeaserver16ModbusRtuHandlerE@Base 0.30.0
 _ZTIN11nymeaserver16ModbusRtuManagerE@Base 0.30.0
 _ZTIN11nymeaserver17ExperienceManagerE@Base 0.30.0
 _ZTIN11nymeaserver17SerialPortMonitorE@Base 0.30.0
 _ZTIN11nymeaserver18DebugServerHandlerE@Base 0.30.0
 _ZTIN11nymeaserver18LogEntriesFetchJobE@Base 0.30.0
 _ZTIN11nymeaserver18ModbusRtuReplyImplE@Base 0.30.0
 _ZTIN11nymeaserver18NymeaConfigurationE@Base 0.30.0
 _ZTIN11nymeaserver18Radio433TrasmitterE@Base 0.30.0
 _ZTIN11nymeaserver18TransportInterfaceE@Base 0.30.0
 _ZTIN11nymeaserver19IntegrationsHandlerE@Base 0.30.0
 _ZTIN11nymeaserver19ModbusRtuMasterImplE@Base 0.30.0
 _ZTIN11nymeaserver20ConfigurationHandlerE@Base 0.30.0
 _ZTIN11nymeaserver20DebugReportGeneratorE@Base 0.30.0
 _ZTIN11nymeaserver20Radio433BrennenstuhlE@Base 0.30.0
 _ZTIN11nymeaserver20ScriptInterfaceEventE@Base 0.30.0
 _ZTIN11nymeaserver20UpnpDiscoveryRequestE@Base 0.30.0
 _ZTIN11nymeaserver21NetworkManagerHandlerE@Base 0.30.0
 _ZTIN11nymeaserver21PushButtonDBusServiceE@Base 0.30.0
 _ZTIN11nymeaserver21ScriptInterfaceActionE@Base 0.30.0
 _ZTIN11nymeaserver24I2CManagerImplementationE@Base 0.30.0
 _ZTIN11nymeaserver24NetworkAccessManagerImplE@Base 0.30.0
 _ZTIN11nymeaserver25MqttChannelImplementationE@Base 0.30.0
 _ZTIN11nymeaserver25PluginTimerImplementationE@Base 0.30.0
 _ZTIN11nymeaserver26MqttProviderImplementationE@Base 0.30.0
 _ZTIN11nymeaserver27JsonRPCServerImplementationE@Base 0.30.0
 _ZTIN11nymeaserver27Radio433BrennenstuhlGatewayE@Base 0.30.0
 _ZTIN11nymeaserver27UpnpDiscoveryImplementationE@Base 0.30.0
 _ZTIN11nymeaserver29HardwareManagerImplementationE@Base 0.30.0
 _ZTIN11nymeaserver32PluginTimerManagerImplementationE@Base 0.30.0
 _ZTIN11nymeaserver32UpnpDiscoveryReplyImplementationE@Base 0.30.0
 _ZTIN11nymeaserver36ZigbeeHardwareResourceImplementationE@Base 0.30.0
 _ZTIN11nymeaserver37BluetoothDiscoveryReplyImplementationE@Base 0.30.0
 _ZTIN11nymeaserver38BluetoothLowEnergyDeviceImplementationE@Base 0.30.0
 _ZTIN11nymeaserver39BluetoothLowEnergyManagerImplementationE@Base 0.30.0
 _ZTIN11nymeaserver39ModbusRtuHardwareResourceImplementationE@Base 0.30.0
 _ZTIN11nymeaserver6DeviceE@Base 0.30.0
 _ZTIN11nymeaserver8PlatformE@Base 0.30.0
 _ZTIN11nymeaserver9HttpReplyE@Base 0.30.0
 _ZTIN11nymeaserver9LogEngineE@Base 0.30.0
 _ZTIN11nymeaserver9NymeaCoreE@Base 0.30.0
 _ZTIN11nymeaserver9SslServerE@Base 0.30.0
 _ZTIN11nymeaserver9TcpServerE@Base 0.30.0
 _ZTIN11nymeaserver9WebServerE@Base 0.30.0
 _ZTIN12QtConcurrent15RunFunctionTaskIPN11nymeaserver11DatabaseJobEEE@Base 0.30.0
 _ZTIN12QtConcurrent15RunFunctionTaskIvEE@Base 0.30.0
 _ZTIN12QtConcurrent19RunFunctionTaskBaseIPN11nymeaserver11DatabaseJobEEE@Base 0.30.0
 _ZTIN12QtConcurrent19RunFunctionTaskBaseIvEE@Base 0.30.0
 _ZTS11ScriptAlarm@Base 0.30.0
 _ZTS11ScriptThing@Base 0.30.0
 _ZTS12AWSConnector@Base 0.30.0
 _ZTS12LogValueTool@Base 0.30.0
 _ZTS12QDBusContext@Base 0.30.0
 _ZTS13JsonRPCServer@Base 0.30.0
 _ZTS14AppDataHandler@Base 0.30.0
 _ZTS14MqttAuthorizer@Base 0.30.0
 _ZTS14QFutureWatcherIPN11nymeaserver11DatabaseJobEE@Base 0.30.0
 _ZTS14QFutureWatcherIvE@Base 0.30.0
 _ZTS16QFutureInterfaceIPN11nymeaserver11DatabaseJobEE@Base 0.30.0
 _ZTS16QFutureInterfaceIvE@Base 0.30.0
 _ZTS18CloudNotifications@Base 0.30.0
 _ZTS20ScriptThingSetupInfo@Base 0.30.0
 _ZTS21ScriptThingActionInfo@Base 0.30.0
 _ZTS22ApiKeysProvidersLoader@Base 0.30.0
 _ZTS22ScriptThingPairingInfo@Base 0.30.0
 _ZTS23PythonIntegrationPlugin@Base 0.30.0
 _ZTS23ScriptIntegrationPlugin@Base 0.30.0
 _ZTS24ScriptThingDiscoveryInfo@Base 0.30.0
 _ZTS26ThingManagerImplementation@Base 0.30.0
 _ZTSN11QQmlPrivate11QQmlElementI11ScriptAlarmEE@Base 0.30.0
 _ZTSN11QQmlPrivate11QQmlElementIN11nymeaserver11ScriptEventEEE@Base 0.30.0
 _ZTSN11QQmlPrivate11QQmlElementIN11nymeaserver11ScriptStateEEE@Base 0.30.0
 _ZTSN11QQmlPrivate11QQmlElementIN11nymeaserver12ScriptActionEEE@Base 0.30.0
 _ZTSN11QQmlPrivate11QQmlElementIN11nymeaserver20ScriptInterfaceEventEEE@Base 0.30.0
 _ZTSN11QQmlPrivate11QQmlElementIN11nymeaserver21ScriptInterfaceActionEEE@Base 0.30.0
 _ZTSN11nymeaserver10MqttBrokerE@Base 0.30.0
 _ZTSN11nymeaserver10RuleEngineE@Base 0.30.0
 _ZTSN11nymeaserver11DatabaseJobE@Base 0.30.0
 _ZTSN11nymeaserver11ScriptEventE@Base 0.30.0
 _ZTSN11nymeaserver11ScriptStateE@Base 0.30.0
 _ZTSN11nymeaserver11TagsHandlerE@Base 0.30.0
 _ZTSN11nymeaserver11TagsStorageE@Base 0.30.0
 _ZTSN11nymeaserver11TimeManagerE@Base 0.30.0
 _ZTSN11nymeaserver11UserManagerE@Base 0.30.0
 _ZTSN11nymeaserver12CloudManagerE@Base 0.30.0
 _ZTSN11nymeaserver12DevicePluginE@Base 0.30.0
 _ZTSN11nymeaserver12EventHandlerE@Base 0.30.0
 _ZTSN11nymeaserver12RulesHandlerE@Base 0.30.0
 _ZTSN11nymeaserver12ScriptActionE@Base 0.30.0
 _ZTSN11nymeaserver12ScriptEngineE@Base 0.30.0
 _ZTSN11nymeaserver12StateHandlerE@Base 0.30.0
 _ZTSN11nymeaserver12UsersHandlerE@Base 0.30.0
 _ZTSN11nymeaserver13ActionHandlerE@Base 0.30.0
 _ZTSN11nymeaserver13DeviceHandlerE@Base 0.30.0
 _ZTSN11nymeaserver13MockTcpServerE@Base 0.30.0
 _ZTSN11nymeaserver13ServerManagerE@Base 0.30.0
 _ZTSN11nymeaserver13SystemHandlerE@Base 0.30.0
 _ZTSN11nymeaserver13ZigbeeHandlerE@Base 0.30.0
 _ZTSN11nymeaserver13ZigbeeManagerE@Base 0.30.0
 _ZTSN11nymeaserver14CloudTransportE@Base 0.30.0
 _ZTSN11nymeaserver14LoggingHandlerE@Base 0.30.0
 _ZTSN11nymeaserver14ScriptsHandlerE@Base 0.30.0
 _ZTSN11nymeaserver14ThingsFetchJobE@Base 0.30.0
 _ZTSN11nymeaserver15BluetoothServerE@Base 0.30.0
 _ZTSN11nymeaserver15WebServerClientE@Base 0.30.0
 _ZTSN11nymeaserver15WebSocketServerE@Base 0.30.0
 _ZTSN11nymeaserver16ModbusRtuHandlerE@Base 0.30.0
 _ZTSN11nymeaserver16ModbusRtuManagerE@Base 0.30.0
 _ZTSN11nymeaserver17ExperienceManagerE@Base 0.30.0
 _ZTSN11nymeaserver17SerialPortMonitorE@Base 0.30.0
 _ZTSN11nymeaserver18DebugServerHandlerE@Base 0.30.0
 _ZTSN11nymeaserver18LogEntriesFetchJobE@Base 0.30.0
 _ZTSN11nymeaserver18ModbusRtuReplyImplE@Base 0.30.0
 _ZTSN11nymeaserver18NymeaConfigurationE@Base 0.30.0
 _ZTSN11nymeaserver18Radio433TrasmitterE@Base 0.30.0
 _ZTSN11nymeaserver18TransportInterfaceE@Base 0.30.0
 _ZTSN11nymeaserver19IntegrationsHandlerE@Base 0.30.0
 _ZTSN11nymeaserver19ModbusRtuMasterImplE@Base 0.30.0
 _ZTSN11nymeaserver19NymeaMqttAuthorizerE@Base 0.30.0
 _ZTSN11nymeaserver20ConfigurationHandlerE@Base 0.30.0
 _ZTSN11nymeaserver20DebugReportGeneratorE@Base 0.30.0
 _ZTSN11nymeaserver20Radio433BrennenstuhlE@Base 0.30.0
 _ZTSN11nymeaserver20ScriptInterfaceEventE@Base 0.30.0
 _ZTSN11nymeaserver20UpnpDiscoveryRequestE@Base 0.30.0
 _ZTSN11nymeaserver21NetworkManagerHandlerE@Base 0.30.0
 _ZTSN11nymeaserver21PushButtonDBusServiceE@Base 0.30.0
 _ZTSN11nymeaserver21ScriptInterfaceActionE@Base 0.30.0
 _ZTSN11nymeaserver24I2CManagerImplementationE@Base 0.30.0
 _ZTSN11nymeaserver24NetworkAccessManagerImplE@Base 0.30.0
 _ZTSN11nymeaserver25MqttChannelImplementationE@Base 0.30.0
 _ZTSN11nymeaserver25PluginTimerImplementationE@Base 0.30.0
 _ZTSN11nymeaserver26MqttProviderImplementationE@Base 0.30.0
 _ZTSN11nymeaserver27JsonRPCServerImplementationE@Base 0.30.0
 _ZTSN11nymeaserver27Radio433BrennenstuhlGatewayE@Base 0.30.0
 _ZTSN11nymeaserver27UpnpDiscoveryImplementationE@Base 0.30.0
 _ZTSN11nymeaserver29HardwareManagerImplementationE@Base 0.30.0
 _ZTSN11nymeaserver32PluginTimerManagerImplementationE@Base 0.30.0
 _ZTSN11nymeaserver32UpnpDiscoveryReplyImplementationE@Base 0.30.0
 _ZTSN11nymeaserver36ZigbeeHardwareResourceImplementationE@Base 0.30.0
 _ZTSN11nymeaserver37BluetoothDiscoveryReplyImplementationE@Base 0.30.0
 _ZTSN11nymeaserver38BluetoothLowEnergyDeviceImplementationE@Base 0.30.0
 _ZTSN11nymeaserver39BluetoothLowEnergyManagerImplementationE@Base 0.30.0
 _ZTSN11nymeaserver39ModbusRtuHardwareResourceImplementationE@Base 0.30.0
 _ZTSN11nymeaserver6DeviceE@Base 0.30.0
 _ZTSN11nymeaserver8PlatformE@Base 0.30.0
 _ZTSN11nymeaserver9HttpReplyE@Base 0.30.0
 _ZTSN11nymeaserver9LogEngineE@Base 0.30.0
 _ZTSN11nymeaserver9NymeaCoreE@Base 0.30.0
 _ZTSN11nymeaserver9SslServerE@Base 0.30.0
 _ZTSN11nymeaserver9TcpServerE@Base 0.30.0
 _ZTSN11nymeaserver9WebServerE@Base 0.30.0
 _ZTSN12QtConcurrent15RunFunctionTaskIPN11nymeaserver11DatabaseJobEEE@Base 0.30.0
 _ZTSN12QtConcurrent15RunFunctionTaskIvEE@Base 0.30.0
 _ZTSN12QtConcurrent19RunFunctionTaskBaseIPN11nymeaserver11DatabaseJobEEE@Base 0.30.0
 _ZTSN12QtConcurrent19RunFunctionTaskBaseIvEE@Base 0.30.0
 _ZTV11ScriptAlarm@Base 0.30.0
 _ZTV11ScriptThing@Base 0.30.0
 _ZTV12AWSConnector@Base 0.30.0
 _ZTV12LogValueTool@Base 0.30.0
 _ZTV14AppDataHandler@Base 0.30.0
 _ZTV18CloudNotifications@Base 0.30.0
 _ZTV20ScriptThingSetupInfo@Base 0.30.0
 _ZTV21ScriptThingActionInfo@Base 0.30.0
 _ZTV22ApiKeysProvidersLoader@Base 0.30.0
 _ZTV22ScriptThingPairingInfo@Base 0.30.0
 _ZTV23PythonIntegrationPlugin@Base 0.30.0
 _ZTV23ScriptIntegrationPlugin@Base 0.30.0
 _ZTV24ScriptThingDiscoveryInfo@Base 0.30.0
 _ZTV26ThingManagerImplementation@Base 0.30.0
 _ZTVN11nymeaserver10MqttBrokerE@Base 0.30.0
 _ZTVN11nymeaserver10RuleEngineE@Base 0.30.0
 _ZTVN11nymeaserver11DatabaseJobE@Base 0.30.0
 _ZTVN11nymeaserver11ScriptEventE@Base 0.30.0
 _ZTVN11nymeaserver11ScriptStateE@Base 0.30.0
 _ZTVN11nymeaserver11TagsHandlerE@Base 0.30.0
 _ZTVN11nymeaserver11TagsStorageE@Base 0.30.0
 _ZTVN11nymeaserver11TimeManagerE@Base 0.30.0
 _ZTVN11nymeaserver11UserManagerE@Base 0.30.0
 _ZTVN11nymeaserver12CloudManagerE@Base 0.30.0
 _ZTVN11nymeaserver12DevicePluginE@Base 0.30.0
 _ZTVN11nymeaserver12EventHandlerE@Base 0.30.0
 _ZTVN11nymeaserver12RulesHandlerE@Base 0.30.0
 _ZTVN11nymeaserver12ScriptActionE@Base 0.30.0
 _ZTVN11nymeaserver12ScriptEngineE@Base 0.30.0
 _ZTVN11nymeaserver12StateHandlerE@Base 0.30.0
 _ZTVN11nymeaserver12UsersHandlerE@Base 0.30.0
 _ZTVN11nymeaserver13ActionHandlerE@Base 0.30.0
 _ZTVN11nymeaserver13DeviceHandlerE@Base 0.30.0
 _ZTVN11nymeaserver13MockTcpServerE@Base 0.30.0
 _ZTVN11nymeaserver13ServerManagerE@Base 0.30.0
 _ZTVN11nymeaserver13SystemHandlerE@Base 0.30.0
 _ZTVN11nymeaserver13ZigbeeHandlerE@Base 0.30.0
 _ZTVN11nymeaserver13ZigbeeManagerE@Base 0.30.0
 _ZTVN11nymeaserver14CloudTransportE@Base 0.30.0
 _ZTVN11nymeaserver14LoggingHandlerE@Base 0.30.0
 _ZTVN11nymeaserver14ScriptsHandlerE@Base 0.30.0
 _ZTVN11nymeaserver14ThingsFetchJobE@Base 0.30.0
 _ZTVN11nymeaserver15BluetoothServerE@Base 0.30.0
 _ZTVN11nymeaserver15WebServerClientE@Base 0.30.0
 _ZTVN11nymeaserver15WebSocketServerE@Base 0.30.0
 _ZTVN11nymeaserver16ModbusRtuHandlerE@Base 0.30.0
 _ZTVN11nymeaserver16ModbusRtuManagerE@Base 0.30.0
 _ZTVN11nymeaserver17ExperienceManagerE@Base 0.30.0
 _ZTVN11nymeaserver17SerialPortMonitorE@Base 0.30.0
 _ZTVN11nymeaserver18DebugServerHandlerE@Base 0.30.0
 _ZTVN11nymeaserver18LogEntriesFetchJobE@Base 0.30.0
 _ZTVN11nymeaserver18ModbusRtuReplyImplE@Base 0.30.0
 _ZTVN11nymeaserver18NymeaConfigurationE@Base 0.30.0
 _ZTVN11nymeaserver18Radio433TrasmitterE@Base 0.30.0
 _ZTVN11nymeaserver18TransportInterfaceE@Base 0.30.0
 _ZTVN11nymeaserver19IntegrationsHandlerE@Base 0.30.0
 _ZTVN11nymeaserver19ModbusRtuMasterImplE@Base 0.30.0
 _ZTVN11nymeaserver20ConfigurationHandlerE@Base 0.30.0
 _ZTVN11nymeaserver20DebugReportGeneratorE@Base 0.30.0
 _ZTVN11nymeaserver20Radio433BrennenstuhlE@Base 0.30.0
 _ZTVN11nymeaserver20ScriptInterfaceEventE@Base 0.30.0
 _ZTVN11nymeaserver20UpnpDiscoveryRequestE@Base 0.30.0
 _ZTVN11nymeaserver21NetworkManagerHandlerE@Base 0.30.0
 _ZTVN11nymeaserver21PushButtonDBusServiceE@Base 0.30.0
 _ZTVN11nymeaserver21ScriptInterfaceActionE@Base 0.30.0
 _ZTVN11nymeaserver24I2CManagerImplementationE@Base 0.30.0
 _ZTVN11nymeaserver24NetworkAccessManagerImplE@Base 0.30.0
 _ZTVN11nymeaserver25MqttChannelImplementationE@Base 0.30.0
 _ZTVN11nymeaserver25PluginTimerImplementationE@Base 0.30.0
 _ZTVN11nymeaserver26MqttProviderImplementationE@Base 0.30.0
 _ZTVN11nymeaserver27JsonRPCServerImplementationE@Base 0.30.0
 _ZTVN11nymeaserver27Radio433BrennenstuhlGatewayE@Base 0.30.0
 _ZTVN11nymeaserver27UpnpDiscoveryImplementationE@Base 0.30.0
 _ZTVN11nymeaserver29HardwareManagerImplementationE@Base 0.30.0
 _ZTVN11nymeaserver32PluginTimerManagerImplementationE@Base 0.30.0
 _ZTVN11nymeaserver32UpnpDiscoveryReplyImplementationE@Base 0.30.0
 _ZTVN11nymeaserver36ZigbeeHardwareResourceImplementationE@Base 0.30.0
 _ZTVN11nymeaserver37BluetoothDiscoveryReplyImplementationE@Base 0.30.0
 _ZTVN11nymeaserver38BluetoothLowEnergyDeviceImplementationE@Base 0.30.0
 _ZTVN11nymeaserver39BluetoothLowEnergyManagerImplementationE@Base 0.30.0
 _ZTVN11nymeaserver39ModbusRtuHardwareResourceImplementationE@Base 0.30.0
 _ZTVN11nymeaserver6DeviceE@Base 0.30.0
 _ZTVN11nymeaserver8PlatformE@Base 0.30.0
 _ZTVN11nymeaserver9HttpReplyE@Base 0.30.0
 _ZTVN11nymeaserver9LogEngineE@Base 0.30.0
 _ZTVN11nymeaserver9NymeaCoreE@Base 0.30.0
 _ZTVN11nymeaserver9SslServerE@Base 0.30.0
 _ZTVN11nymeaserver9TcpServerE@Base 0.30.0
 _ZTVN11nymeaserver9WebServerE@Base 0.30.0
 _ZThn104_N11nymeaserver27JsonRPCServerImplementation15registerHandlerEP11JsonHandler@Base 0.30.0
 _ZThn104_N11nymeaserver27JsonRPCServerImplementation25registerExperienceHandlerEP11JsonHandlerii@Base 0.30.0
 _ZThn16_N11nymeaserver11ScriptEvent10classBeginEv@Base 0.30.0
 _ZThn16_N11nymeaserver11ScriptEvent17componentCompleteEv@Base 0.30.0
 _ZThn16_N11nymeaserver11ScriptState10classBeginEv@Base 0.30.0
 _ZThn16_N11nymeaserver11ScriptState17componentCompleteEv@Base 0.30.0
 _ZThn16_N11nymeaserver12ScriptAction10classBeginEv@Base 0.30.0
 _ZThn16_N11nymeaserver12ScriptAction17componentCompleteEv@Base 0.30.0
 _ZThn16_N11nymeaserver20ScriptInterfaceEvent10classBeginEv@Base 0.30.0
 _ZThn16_N11nymeaserver20ScriptInterfaceEvent17componentCompleteEv@Base 0.30.0
 _ZThn16_N11nymeaserver21ScriptInterfaceAction10classBeginEv@Base 0.30.0
 _ZThn16_N11nymeaserver21ScriptInterfaceAction17componentCompleteEv@Base 0.30.0
 _ZZN11QMetaTypeIdI10ActionTypeE14qt_metatype_idEvE11metatype_id@Base 0.30.0
 _ZZN11QMetaTypeIdI10EventTypesE14qt_metatype_idEvE11metatype_id@Base 0.30.0
 _ZZN11QMetaTypeIdI10ParamTypesE14qt_metatype_idEvE11metatype_id@Base 0.30.0
 _ZZN11QMetaTypeIdI10RepositoryE14qt_metatype_idEvE11metatype_id@Base 0.30.0
 _ZZN11QMetaTypeIdI10RuleActionE14qt_metatype_idEvE11metatype_id@Base 0.30.0
 _ZZN11QMetaTypeIdI10StateTypesE14qt_metatype_idEvE11metatype_id@Base 0.30.0
 _ZZN11QMetaTypeIdI11ActionTypesE14qt_metatype_idEvE11metatype_id@Base 0.30.0
 _ZZN11QMetaTypeIdI11ParamTypeIdE14qt_metatype_idEvE11metatype_id@Base 0.30.0
 _ZZN11QMetaTypeIdI11RuleActionsE14qt_metatype_idEvE11metatype_id@Base 0.30.0
 _ZZN11QMetaTypeIdI11StateTypeIdE14qt_metatype_idEvE11metatype_id@Base 0.30.0
 _ZZN11QMetaTypeIdI12IOConnectionE14qt_metatype_idEvE11metatype_id@Base 0.30.0
 _ZZN11QMetaTypeIdI13CalendarItemsE14qt_metatype_idEvE11metatype_id@Base 0.30.0
 _ZZN11QMetaTypeIdI13IOConnectionsE14qt_metatype_idEvE11metatype_id@Base 0.30.0
 _ZZN11QMetaTypeIdI13TimeEventItemE14qt_metatype_idEvE11metatype_id@Base 0.30.0
 _ZZN11QMetaTypeIdI14QBluetoothUuidE14qt_metatype_idEvE11metatype_id@Base 0.30.0
 _ZZN11QMetaTypeIdI14TimeEventItemsE14qt_metatype_idEvE11metatype_id@Base 0.30.0
 _ZZN11QMetaTypeIdI15EventDescriptorE14qt_metatype_idEvE11metatype_id@Base 0.30.0
 _ZZN11QMetaTypeIdI15ParamDescriptorE14qt_metatype_idEvE11metatype_id@Base 0.30.0
 _ZZN11QMetaTypeIdI15QDBusObjectPathE14qt_metatype_idEvE11metatype_id@Base 0.30.0
 _ZZN11QMetaTypeIdI15RuleActionParamE14qt_metatype_idEvE11metatype_id@Base 0.30.0
 _ZZN11QMetaTypeIdI15StateDescriptorE14qt_metatype_idEvE11metatype_id@Base 0.30.0
 _ZZN11QMetaTypeIdI15ThingDescriptorE14qt_metatype_idEvE11metatype_id@Base 0.30.0
 _ZZN11QMetaTypeIdI16EventDescriptorsE14qt_metatype_idEvE11metatype_id@Base 0.30.0
 _ZZN11QMetaTypeIdI16ParamDescriptorsE14qt_metatype_idEvE11metatype_id@Base 0.30.0
 _ZZN11QMetaTypeIdI16ThingDescriptorsE14qt_metatype_idEvE11metatype_id@Base 0.30.0
 _ZZN11QMetaTypeIdI20QBluetoothDeviceInfoE14qt_metatype_idEvE11metatype_id@Base 0.30.0
 _ZZN11QMetaTypeIdI5EventE14qt_metatype_idEvE11metatype_id@Base 0.30.0
 _ZZN11QMetaTypeIdI5ParamE14qt_metatype_idEvE11metatype_id@Base 0.30.0
 _ZZN11QMetaTypeIdI5QListIiEE14qt_metatype_idEvE11metatype_id@Base 0.30.0
 _ZZN11QMetaTypeIdI5StateE14qt_metatype_idEvE11metatype_id@Base 0.30.0
 _ZZN11QMetaTypeIdI6RuleIdE14qt_metatype_idEvE11metatype_id@Base 0.30.0
 _ZZN11QMetaTypeIdI6StatesE14qt_metatype_idEvE11metatype_id@Base 0.30.0
 _ZZN11QMetaTypeIdI6VendorE14qt_metatype_idEvE11metatype_id@Base 0.30.0
 _ZZN11QMetaTypeIdI7PackageE14qt_metatype_idEvE11metatype_id@Base 0.30.0
 _ZZN11QMetaTypeIdI7ThingIdE14qt_metatype_idEvE11metatype_id@Base 0.30.0
 _ZZN11QMetaTypeIdI7VendorsE14qt_metatype_idEvE11metatype_id@Base 0.30.0
 _ZZN11QMetaTypeIdI8PackagesE14qt_metatype_idEvE11metatype_id@Base 0.30.0
 _ZZN11QMetaTypeIdI8PluginIdE14qt_metatype_idEvE11metatype_id@Base 0.30.0
 _ZZN11QMetaTypeIdI9EventTypeE14qt_metatype_idEvE11metatype_id@Base 0.30.0
 _ZZN11QMetaTypeIdI9ParamListE14qt_metatype_idEvE11metatype_id@Base 0.30.0
 _ZZN11QMetaTypeIdI9StateTypeE14qt_metatype_idEvE11metatype_id@Base 0.30.0
 _ZZN11QMetaTypeIdIN11nymeaserver10LogEntriesEE14qt_metatype_idEvE11metatype_id@Base 0.30.0
 _ZZN11QMetaTypeIdIN11nymeaserver10MqttPolicyEE14qt_metatype_idEvE11metatype_id@Base 0.30.0
 _ZZN11QMetaTypeIdIN11nymeaserver10SerialPortEE14qt_metatype_idEvE11metatype_id@Base 0.30.0
 _ZZN11QMetaTypeIdIN11nymeaserver11DeviceClassEE14qt_metatype_idEvE11metatype_id@Base 0.30.0
 _ZZN11QMetaTypeIdIN11nymeaserver11SerialPortsEE14qt_metatype_idEvE11metatype_id@Base 0.30.0
 _ZZN11QMetaTypeIdIN11nymeaserver13TokenInfoListEE14qt_metatype_idEvE11metatype_id@Base 0.30.0
 _ZZN11QMetaTypeIdIN11nymeaserver13ZigbeeAdapterEE14qt_metatype_idEvE11metatype_id@Base 0.30.0
 _ZZN11QMetaTypeIdIN11nymeaserver14StateEvaluatorEE14qt_metatype_idEvE11metatype_id@Base 0.30.0
 _ZZN11QMetaTypeIdIN11nymeaserver14ZigbeeAdaptersEE14qt_metatype_idEvE11metatype_id@Base 0.30.0
 _ZZN11QMetaTypeIdIN11nymeaserver15StateEvaluatorsEE14qt_metatype_idEvE11metatype_id@Base 0.30.0
 _ZZN11QMetaTypeIdIN11nymeaserver19ServerConfigurationEE14qt_metatype_idEvE11metatype_id@Base 0.30.0
 _ZZN11QMetaTypeIdIN11nymeaserver3TagEE14qt_metatype_idEvE11metatype_id@Base 0.30.0
 _ZZN11QMetaTypeIdIN11nymeaserver4TagsEE14qt_metatype_idEvE11metatype_id@Base 0.30.0
 _ZZN11QMetaTypeIdIN11nymeaserver5RulesEE14qt_metatype_idEvE11metatype_id@Base 0.30.0
 _ZZN11QMetaTypeIdIN11nymeaserver6ScriptEE14qt_metatype_idEvE11metatype_id@Base 0.30.0
 _ZZN11QMetaTypeIdIN11nymeaserver7ScriptsEE14qt_metatype_idEvE11metatype_id@Base 0.30.0
 _ZZN11QMetaTypeIdIN11nymeaserver8LogEntryEE14qt_metatype_idEvE11metatype_id@Base 0.30.0
 _ZZN11QMetaTypeIdIN11nymeaserver9TokenInfoEE14qt_metatype_idEvE11metatype_id@Base 0.30.0
 _ZZN11QMetaTypeIdIN15QAbstractSocket11SocketErrorEE14qt_metatype_idEvE11metatype_id@Base 0.30.0
 _ZZN11QMetaTypeIdIN17QtMetaTypePrivate23QSequentialIterableImplEE14qt_metatype_idEvE11metatype_id@Base 0.30.0
 _ZZN11QMetaTypeIdIN17remoteproxyclient21RemoteProxyConnection5StateEE14qt_metatype_idEvE11metatype_id@Base 0.30.0
 _ZZN11QMetaTypeIdIN20QLowEnergyController15ControllerStateEE14qt_metatype_idEvE11metatype_id@Base 0.30.0
 _ZZN11QMetaTypeIdIN20QLowEnergyController5ErrorEE14qt_metatype_idEvE11metatype_id@Base 0.30.0
 _ZZN11QMetaTypeIdIN21QBluetoothLocalDevice8HostModeEE14qt_metatype_idEvE11metatype_id@Base 0.30.0
 _ZZN11QMetaTypeIdIN21QBluetoothServiceInfo8SequenceEE14qt_metatype_idEvE11metatype_id@Base 0.30.0
 _ZZN11QMetaTypeIdIN4Mqtt19SubscribeReturnCodeEE14qt_metatype_idEvE11metatype_id@Base 0.30.0
 _ZZN11QMetaTypeIdIN4Mqtt3QoSEE14qt_metatype_idEvE11metatype_id@Base 0.30.0
 _ZZN11QMetaTypeIdIN5Thing10ThingErrorEE14qt_metatype_idEvE11metatype_id@Base 0.30.0
 _ZZN11QMetaTypeIdIN5Types13StateOperatorEE14qt_metatype_idEvE11metatype_id@Base 0.30.0
 _ZZN11QMetaTypeIdIP17IntegrationPluginE14qt_metatype_idEvE11metatype_id@Base 0.30.0
 _ZZN18QMetaTypeIdQObjectI10ThingClassLi512EE14qt_metatype_idEvE11metatype_id@Base 0.30.0
 _ZZN18QMetaTypeIdQObjectI12CalendarItemLi512EE14qt_metatype_idEvE11metatype_id@Base 0.30.0
 _ZZN18QMetaTypeIdQObjectI12RepositoriesLi512EE14qt_metatype_idEvE11metatype_id@Base 0.30.0
 _ZZN18QMetaTypeIdQObjectI12ThingClassesLi512EE14qt_metatype_idEvE11metatype_id@Base 0.30.0
 _ZZN18QMetaTypeIdQObjectI14TimeDescriptorLi512EE14qt_metatype_idEvE11metatype_id@Base 0.30.0
 _ZZN18QMetaTypeIdQObjectI15RepeatingOptionLi512EE14qt_metatype_idEvE11metatype_id@Base 0.30.0
 _ZZN18QMetaTypeIdQObjectI16RuleActionParamsLi512EE14qt_metatype_idEvE11metatype_id@Base 0.30.0
 _ZZN18QMetaTypeIdQObjectI6ActionLi512EE14qt_metatype_idEvE11metatype_id@Base 0.30.0
 _ZZN18QMetaTypeIdQObjectI8UserInfoLi512EE14qt_metatype_idEvE11metatype_id@Base 0.30.0
 _ZZN18QMetaTypeIdQObjectI9ParamTypeLi512EE14qt_metatype_idEvE11metatype_id@Base 0.30.0
 _ZZN18QMetaTypeIdQObjectIN11nymeaserver13DeviceClassesELi512EE14qt_metatype_idEvE11metatype_id@Base 0.30.0
 _ZZN18QMetaTypeIdQObjectIN11nymeaserver16DeviceDescriptorELi512EE14qt_metatype_idEvE11metatype_id@Base 0.30.0
 _ZZN18QMetaTypeIdQObjectIN11nymeaserver17DeviceDescriptorsELi512EE14qt_metatype_idEvE11metatype_id@Base 0.30.0
 _ZZN18QMetaTypeIdQObjectIN11nymeaserver22WebServerConfigurationELi512EE14qt_metatype_idEvE11metatype_id@Base 0.30.0
 _ZZN18QMetaTypeIdQObjectIN11nymeaserver4RuleELi512EE14qt_metatype_idEvE11metatype_id@Base 0.30.0
 _ZZN18QMetaTypeIdQObjectIP10QSslSocketLi8EE14qt_metatype_idEvE11metatype_id@Base 0.30.0
 _ZZN18QMetaTypeIdQObjectIP10ZigbeeNodeLi8EE14qt_metatype_idEvE11metatype_id@Base 0.30.0
 _ZZN18QMetaTypeIdQObjectIP11PluginTimerLi8EE14qt_metatype_idEvE11metatype_id@Base 0.30.0
 _ZZN18QMetaTypeIdQObjectIP11ScriptAlarmLi8EE14qt_metatype_idEvE11metatype_id@Base 0.30.0
 _ZZN18QMetaTypeIdQObjectIP11ScriptThingLi8EE14qt_metatype_idEvE11metatype_id@Base 0.30.0
 _ZZN18QMetaTypeIdQObjectIP13ZigbeeNetworkLi8EE14qt_metatype_idEvE11metatype_id@Base 0.30.0
 _ZZN18QMetaTypeIdQObjectIP15ModbusRtuMasterLi8EE14qt_metatype_idEvE11metatype_id@Base 0.30.0
 _ZZN18QMetaTypeIdQObjectIP18PluginTimerManagerLi8EE14qt_metatype_idEvE11metatype_id@Base 0.30.0
 _ZZN18QMetaTypeIdQObjectIP18WiredNetworkDeviceLi8EE14qt_metatype_idEvE11metatype_id@Base 0.30.0
 _ZZN18QMetaTypeIdQObjectIP21WirelessNetworkDeviceLi8EE14qt_metatype_idEvE11metatype_id@Base 0.30.0
 _ZZN18QMetaTypeIdQObjectIP5ThingLi8EE14qt_metatype_idEvE11metatype_id@Base 0.30.0
 _ZZN18QMetaTypeIdQObjectIPN11nymeaserver11DatabaseJobELi8EE14qt_metatype_idEvE11metatype_id@Base 0.30.0
 _ZZN18QMetaTypeIdQObjectIPN11nymeaserver11ScriptEventELi8EE14qt_metatype_idEvE11metatype_id@Base 0.30.0
 _ZZN18QMetaTypeIdQObjectIPN11nymeaserver11ScriptStateELi8EE14qt_metatype_idEvE11metatype_id@Base 0.30.0
 _ZZN18QMetaTypeIdQObjectIPN11nymeaserver12ScriptActionELi8EE14qt_metatype_idEvE11metatype_id@Base 0.30.0
 _ZZN18QMetaTypeIdQObjectIPN11nymeaserver20ScriptInterfaceEventELi8EE14qt_metatype_idEvE11metatype_id@Base 0.30.0
 _ZZN18QMetaTypeIdQObjectIPN11nymeaserver21ScriptInterfaceActionELi8EE14qt_metatype_idEvE11metatype_id@Base 0.30.0
 _ZZN9QtPrivate15ConnectionTypesINS_4ListIJP7QObjectEEELb1EE5typesEvE1t@Base 0.30.0
 _ZZN9QtPrivate15ConnectionTypesINS_4ListIJRK16ThingDescriptorsEEELb1EE5typesEvE1t@Base 0.30.0
 _ZZN9QtPrivate15ConnectionTypesINS_4ListIJRK5EventEEELb1EE5typesEvE1t@Base 0.30.0
 _ZZN9QtPrivate15ConnectionTypesINS_4ListIJRK5QUuidEEELb1EE5typesEvE1t@Base 0.30.0
 _ZZN9QtPrivate15ConnectionTypesINS_4ListIJRK7QStringEEELb1EE5typesEvE1t@Base 0.30.0
 _ZZN9QtPrivate15ConnectionTypesINS_4ListIJRK7ThingIdEEELb1EE5typesEvE1t@Base 0.30.0
 _ZZN9QtPrivate15ConnectionTypesINS_4ListIJRK9QDateTimeEEELb1EE5typesEvE1t@Base 0.30.0
 _ZZN9QtPrivate15ConnectionTypesINS_4ListIJbEEELb1EE5typesEvE1t@Base 0.30.0
 _ZZN9QtPrivate15ConnectionTypesINS_4ListIJibRK10QByteArrayEEELb1EE5typesEvE1t@Base 0.30.0
 _ZZN9QtPrivate19ValueTypeIsMetaTypeI5QListIiELb1EE17registerConverterEiE1f@Base 0.30.0
 _ZZZN11nymeaserver19NymeaMqttAuthorizer11matchPolicyERK11QStringListRK7QStringENKUlvE0_clEvE15qstring_literal@Base 0.30.0
 _ZZZN11nymeaserver19NymeaMqttAuthorizer11matchPolicyERK11QStringListRK7QStringENKUlvE_clEvE15qstring_literal@Base 0.30.0
 _Zls6QDebugRK10RuleAction@Base 0.30.0
 _Zls6QDebugRK15RuleActionParam@Base 0.30.0
 _Zls6QDebugRK16RuleActionParams@Base 0.30.0
 _Zls6QDebugRK5QListI10RuleActionE@Base 0.30.0
 cloudNotificationsThingClassEndpointParamId@Base 0.30.0
 cloudNotificationsThingClassId@Base 0.30.0
 cloudNotificationsThingClassUserParamId@Base 0.30.0
 connectedStateTypeId@Base 0.30.0
 notifyActionParamBodyId@Base 0.30.0
 notifyActionParamTitleId@Base 0.30.0
 notifyActionTypeId@Base 0.30.0
libnymea-testlib.so.1 libnymea1 #MINVER#
 _Z6dcMockv@Base 0.30.0
 _Z7dcTestsv@Base 0.30.0
 _ZGVZN10QSignalSpy15connectToSignalEPK7QObjectiE12memberOffset@Base 0.30.0
 _ZN11nymeaserver13NymeaTestBase10createMockEv@Base 0.30.0
 _ZN11nymeaserver13NymeaTestBase10getAndWaitERK15QNetworkRequestRKi@Base 0.30.0
 _ZN11nymeaserver13NymeaTestBase10putAndWaitERK15QNetworkRequestRK8QVariantRKi@Base 0.30.0
 _ZN11nymeaserver13NymeaTestBase11postAndWaitERK15QNetworkRequestRK8QVariantRKi@Base 0.30.0
 _ZN11nymeaserver13NymeaTestBase11qt_metacallEN11QMetaObject4CallEiPPv@Base 0.30.0
 _ZN11nymeaserver13NymeaTestBase11qt_metacastEPKc@Base 0.30.0
 _ZN11nymeaserver13NymeaTestBase11verifyReplyEP13QNetworkReplyRK10QByteArrayRKi@Base 0.30.0
 _ZN11nymeaserver13NymeaTestBase12initTestCaseERK7QString@Base 0.30.0
 _ZN11nymeaserver13NymeaTestBase13deleteAndWaitERK15QNetworkRequestRKi@Base 0.30.0
 _ZN11nymeaserver13NymeaTestBase13injectAndWaitERK7QStringRK4QMapIS1_8QVariantERK5QUuid@Base 0.30.0
 _ZN11nymeaserver13NymeaTestBase13restartServerEv@Base 0.30.0
 _ZN11nymeaserver13NymeaTestBase13waitForDBSyncEv@Base 0.30.0
 _ZN11nymeaserver13NymeaTestBase15cleanupTestCaseEv@Base 0.30.0
 _ZN11nymeaserver13NymeaTestBase16staticMetaObjectE@Base 0.30.0
 _ZN11nymeaserver13NymeaTestBase17checkNotificationERK10QSignalSpyRK7QString@Base 0.30.0
 _ZN11nymeaserver13NymeaTestBase18checkNotificationsERK10QSignalSpyRK7QString@Base 0.30.0
 _ZN11nymeaserver13NymeaTestBase19enableNotificationsERK11QStringList@Base 0.30.0
 _ZN11nymeaserver13NymeaTestBase20clearLoggingDatabaseEv@Base 0.30.0
 _ZN11nymeaserver13NymeaTestBase20disableNotificationsEv@Base 0.30.0
 _ZN11nymeaserver13NymeaTestBase7cleanupEv@Base 0.30.0
 _ZN11nymeaserver13NymeaTestBaseC1EP7QObject@Base 0.30.0
 _ZN11nymeaserver13NymeaTestBaseC2EP7QObject@Base 0.30.0
 _ZN17QtMetaTypePrivate23QMetaTypeFunctionHelperIP13QNetworkReplyLb1EE8DestructEPv@Base 0.30.0
 _ZN17QtMetaTypePrivate23QMetaTypeFunctionHelperIP13QNetworkReplyLb1EE9ConstructEPvPKv@Base 0.30.0
 _ZNK11nymeaserver13NymeaTestBase10metaObjectEv@Base 0.30.0
 _ZTI19QListSpecialMethodsI5QListI8QVariantEE@Base 0.30.0
 _ZTI5QListIS_I8QVariantEE@Base 0.30.0
 _ZTIN11nymeaserver13NymeaTestBaseE@Base 0.30.0
 _ZTS10QSignalSpy@Base 0.30.0
 _ZTS19QListSpecialMethodsI5QListI8QVariantEE@Base 0.30.0
 _ZTS5QListIS_I8QVariantEE@Base 0.30.0
 _ZTSN11nymeaserver13NymeaTestBaseE@Base 0.30.0
 _ZTVN11nymeaserver13NymeaTestBaseE@Base 0.30.0
 _ZZN10QSignalSpy15connectToSignalEPK7QObjectiE12memberOffset@Base 0.30.0
 _ZZN18QMetaTypeIdQObjectIP13QNetworkReplyLi8EE14qt_metatype_idEvE11metatype_id@Base 0.30.0
 autoMockBoolValueEventBoolValueParamTypeId@Base 0.30.0
 autoMockBoolValueEventTypeId@Base 0.30.0
 autoMockBoolValueStateTypeId@Base 0.30.0
 autoMockEvent1EventTypeId@Base 0.30.0
 autoMockEvent2EventIntParamParamTypeId@Base 0.30.0
 autoMockEvent2EventTypeId@Base 0.30.0
 autoMockIntEventIntParamTypeId@Base 0.30.0
 autoMockIntEventTypeId@Base 0.30.0
 autoMockIntStateTypeId@Base 0.30.0
 autoMockMockActionAsyncActionTypeId@Base 0.30.0
 autoMockMockActionAsyncBrokenActionTypeId@Base 0.30.0
 autoMockMockActionBrokenActionTypeId@Base 0.30.0
 autoMockMockActionNoParmsActionTypeId@Base 0.30.0
 autoMockSettingsMockSettingParamTypeId@Base 0.30.0
 autoMockThingAsyncParamTypeId@Base 0.30.0
 autoMockThingBrokenParamTypeId@Base 0.30.0
 autoMockThingClassId@Base 0.30.0
 autoMockThingHttpportParamTypeId@Base 0.30.0
 autoMockWithParamsActionMockActionParam1ParamTypeId@Base 0.30.0
 autoMockWithParamsActionMockActionParam2ParamTypeId@Base 0.30.0
 autoMockWithParamsActionTypeId@Base 0.30.0
 childMockBoolValueActionBoolValueParamTypeId@Base 0.30.0
 childMockBoolValueActionTypeId@Base 0.30.0
 childMockBoolValueEventBoolValueParamTypeId@Base 0.30.0
 childMockBoolValueEventTypeId@Base 0.30.0
 childMockBoolValueStateTypeId@Base 0.30.0
 childMockThingClassId@Base 0.30.0
 displayPinMockAllowedValuesActionAllowedValuesParamTypeId@Base 0.30.0
 displayPinMockAllowedValuesActionTypeId@Base 0.30.0
 displayPinMockAllowedValuesEventAllowedValuesParamTypeId@Base 0.30.0
 displayPinMockAllowedValuesEventTypeId@Base 0.30.0
 displayPinMockAllowedValuesStateTypeId@Base 0.30.0
 displayPinMockBoolActionBoolParamTypeId@Base 0.30.0
 displayPinMockBoolActionTypeId@Base 0.30.0
 displayPinMockBoolEventBoolParamTypeId@Base 0.30.0
 displayPinMockBoolEventTypeId@Base 0.30.0
 displayPinMockBoolStateTypeId@Base 0.30.0
 displayPinMockColorActionColorParamTypeId@Base 0.30.0
 displayPinMockColorActionTypeId@Base 0.30.0
 displayPinMockColorEventColorParamTypeId@Base 0.30.0
 displayPinMockColorEventTypeId@Base 0.30.0
 displayPinMockColorStateTypeId@Base 0.30.0
 displayPinMockDiscoveryResultCountParamTypeId@Base 0.30.0
 displayPinMockDoubleActionDoubleParamTypeId@Base 0.30.0
 displayPinMockDoubleActionTypeId@Base 0.30.0
 displayPinMockDoubleEventDoubleParamTypeId@Base 0.30.0
 displayPinMockDoubleEventTypeId@Base 0.30.0
 displayPinMockDoubleStateTypeId@Base 0.30.0
 displayPinMockPercentageActionPercentageParamTypeId@Base 0.30.0
 displayPinMockPercentageActionTypeId@Base 0.30.0
 displayPinMockPercentageEventPercentageParamTypeId@Base 0.30.0
 displayPinMockPercentageEventTypeId@Base 0.30.0
 displayPinMockPercentageStateTypeId@Base 0.30.0
 displayPinMockThingClassId@Base 0.30.0
 displayPinMockThingPinParamTypeId@Base 0.30.0
 displayPinMockTimeoutActionTypeId@Base 0.30.0
 genericIoMockAnalogInput1ActionAnalogInput1ParamTypeId@Base 0.30.0
 genericIoMockAnalogInput1ActionTypeId@Base 0.30.0
 genericIoMockAnalogInput1EventAnalogInput1ParamTypeId@Base 0.30.0
 genericIoMockAnalogInput1EventTypeId@Base 0.30.0
 genericIoMockAnalogInput1StateTypeId@Base 0.30.0
 genericIoMockAnalogInput2EventAnalogInput2ParamTypeId@Base 0.30.0
 genericIoMockAnalogInput2EventTypeId@Base 0.30.0
 genericIoMockAnalogInput2StateTypeId@Base 0.30.0
 genericIoMockAnalogOutput1ActionAnalogOutput1ParamTypeId@Base 0.30.0
 genericIoMockAnalogOutput1ActionTypeId@Base 0.30.0
 genericIoMockAnalogOutput1EventAnalogOutput1ParamTypeId@Base 0.30.0
 genericIoMockAnalogOutput1EventTypeId@Base 0.30.0
 genericIoMockAnalogOutput1StateTypeId@Base 0.30.0
 genericIoMockAnalogOutput2ActionAnalogOutput2ParamTypeId@Base 0.30.0
 genericIoMockAnalogOutput2ActionTypeId@Base 0.30.0
 genericIoMockAnalogOutput2EventAnalogOutput2ParamTypeId@Base 0.30.0
 genericIoMockAnalogOutput2EventTypeId@Base 0.30.0
 genericIoMockAnalogOutput2StateTypeId@Base 0.30.0
 genericIoMockDigitalInput1EventDigitalInput1ParamTypeId@Base 0.30.0
 genericIoMockDigitalInput1EventTypeId@Base 0.30.0
 genericIoMockDigitalInput1StateTypeId@Base 0.30.0
 genericIoMockDigitalInput2EventDigitalInput2ParamTypeId@Base 0.30.0
 genericIoMockDigitalInput2EventTypeId@Base 0.30.0
 genericIoMockDigitalInput2StateTypeId@Base 0.30.0
 genericIoMockDigitalOutput1ActionDigitalOutput1ParamTypeId@Base 0.30.0
 genericIoMockDigitalOutput1ActionTypeId@Base 0.30.0
 genericIoMockDigitalOutput1EventDigitalOutput1ParamTypeId@Base 0.30.0
 genericIoMockDigitalOutput1EventTypeId@Base 0.30.0
 genericIoMockDigitalOutput1StateTypeId@Base 0.30.0
 genericIoMockDigitalOutput2ActionDigitalOutput2ParamTypeId@Base 0.30.0
 genericIoMockDigitalOutput2ActionTypeId@Base 0.30.0
 genericIoMockDigitalOutput2EventDigitalOutput2ParamTypeId@Base 0.30.0
 genericIoMockDigitalOutput2EventTypeId@Base 0.30.0
 genericIoMockDigitalOutput2StateTypeId@Base 0.30.0
 genericIoMockThingClassId@Base 0.30.0
 inputTypeMockBoolEventBoolParamTypeId@Base 0.30.0
 inputTypeMockBoolEventTypeId@Base 0.30.0
 inputTypeMockBoolStateTypeId@Base 0.30.0
 inputTypeMockColorEventColorParamTypeId@Base 0.30.0
 inputTypeMockColorEventTypeId@Base 0.30.0
 inputTypeMockColorStateTypeId@Base 0.30.0
 inputTypeMockDoubleEventDoubleParamTypeId@Base 0.30.0
 inputTypeMockDoubleEventTypeId@Base 0.30.0
 inputTypeMockDoubleStateTypeId@Base 0.30.0
 inputTypeMockIntEventIntParamTypeId@Base 0.30.0
 inputTypeMockIntEventTypeId@Base 0.30.0
 inputTypeMockIntStateTypeId@Base 0.30.0
 inputTypeMockStringEventStringParamTypeId@Base 0.30.0
 inputTypeMockStringEventTypeId@Base 0.30.0
 inputTypeMockStringStateTypeId@Base 0.30.0
 inputTypeMockThingClassId@Base 0.30.0
 inputTypeMockThingIp4ParamTypeId@Base 0.30.0
 inputTypeMockThingIp6ParamTypeId@Base 0.30.0
 inputTypeMockThingMacParamTypeId@Base 0.30.0
 inputTypeMockThingMailParamTypeId@Base 0.30.0
 inputTypeMockThingPasswordParamTypeId@Base 0.30.0
 inputTypeMockThingSearchParamTypeId@Base 0.30.0
 inputTypeMockThingTextAreaParamTypeId@Base 0.30.0
 inputTypeMockThingTextLineParamTypeId@Base 0.30.0
 inputTypeMockThingUrlParamTypeId@Base 0.30.0
 inputTypeMockTimeEventTimeParamTypeId@Base 0.30.0
 inputTypeMockTimeEventTypeId@Base 0.30.0
 inputTypeMockTimeStateTypeId@Base 0.30.0
 inputTypeMockTimestampIntEventTimestampIntParamTypeId@Base 0.30.0
 inputTypeMockTimestampIntEventTypeId@Base 0.30.0
 inputTypeMockTimestampIntStateTypeId@Base 0.30.0
 inputTypeMockTimestampUIntEventTimestampUIntParamTypeId@Base 0.30.0
 inputTypeMockTimestampUIntEventTypeId@Base 0.30.0
 inputTypeMockTimestampUIntStateTypeId@Base 0.30.0
 inputTypeMockUintEventTypeId@Base 0.30.0
 inputTypeMockUintEventUintParamTypeId@Base 0.30.0
 inputTypeMockUintStateTypeId@Base 0.30.0
 inputTypeMockWritableBoolActionTypeId@Base 0.30.0
 inputTypeMockWritableBoolActionWritableBoolParamTypeId@Base 0.30.0
 inputTypeMockWritableBoolEventTypeId@Base 0.30.0
 inputTypeMockWritableBoolEventWritableBoolParamTypeId@Base 0.30.0
 inputTypeMockWritableBoolStateTypeId@Base 0.30.0
 inputTypeMockWritableColorActionTypeId@Base 0.30.0
 inputTypeMockWritableColorActionWritableColorParamTypeId@Base 0.30.0
 inputTypeMockWritableColorEventTypeId@Base 0.30.0
 inputTypeMockWritableColorEventWritableColorParamTypeId@Base 0.30.0
 inputTypeMockWritableColorStateTypeId@Base 0.30.0
 inputTypeMockWritableDoubleActionTypeId@Base 0.30.0
 inputTypeMockWritableDoubleActionWritableDoubleParamTypeId@Base 0.30.0
 inputTypeMockWritableDoubleEventTypeId@Base 0.30.0
 inputTypeMockWritableDoubleEventWritableDoubleParamTypeId@Base 0.30.0
 inputTypeMockWritableDoubleMinMaxActionTypeId@Base 0.30.0
 inputTypeMockWritableDoubleMinMaxActionWritableDoubleMinMaxParamTypeId@Base 0.30.0
 inputTypeMockWritableDoubleMinMaxEventTypeId@Base 0.30.0
 inputTypeMockWritableDoubleMinMaxEventWritableDoubleMinMaxParamTypeId@Base 0.30.0
 inputTypeMockWritableDoubleMinMaxStateTypeId@Base 0.30.0
 inputTypeMockWritableDoubleStateTypeId@Base 0.30.0
 inputTypeMockWritableIntActionTypeId@Base 0.30.0
 inputTypeMockWritableIntActionWritableIntParamTypeId@Base 0.30.0
 inputTypeMockWritableIntEventTypeId@Base 0.30.0
 inputTypeMockWritableIntEventWritableIntParamTypeId@Base 0.30.0
 inputTypeMockWritableIntMinMaxActionTypeId@Base 0.30.0
 inputTypeMockWritableIntMinMaxActionWritableIntMinMaxParamTypeId@Base 0.30.0
 inputTypeMockWritableIntMinMaxEventTypeId@Base 0.30.0
 inputTypeMockWritableIntMinMaxEventWritableIntMinMaxParamTypeId@Base 0.30.0
 inputTypeMockWritableIntMinMaxStateTypeId@Base 0.30.0
 inputTypeMockWritableIntStateTypeId@Base 0.30.0
 inputTypeMockWritableStringActionTypeId@Base 0.30.0
 inputTypeMockWritableStringActionWritableStringParamTypeId@Base 0.30.0
 inputTypeMockWritableStringEventTypeId@Base 0.30.0
 inputTypeMockWritableStringEventWritableStringParamTypeId@Base 0.30.0
 inputTypeMockWritableStringSelectionActionTypeId@Base 0.30.0
 inputTypeMockWritableStringSelectionActionWritableStringSelectionParamTypeId@Base 0.30.0
 inputTypeMockWritableStringSelectionEventTypeId@Base 0.30.0
 inputTypeMockWritableStringSelectionEventWritableStringSelectionParamTypeId@Base 0.30.0
 inputTypeMockWritableStringSelectionStateTypeId@Base 0.30.0
 inputTypeMockWritableStringStateTypeId@Base 0.30.0
 inputTypeMockWritableTimeActionTypeId@Base 0.30.0
 inputTypeMockWritableTimeActionWritableTimeParamTypeId@Base 0.30.0
 inputTypeMockWritableTimeEventTypeId@Base 0.30.0
 inputTypeMockWritableTimeEventWritableTimeParamTypeId@Base 0.30.0
 inputTypeMockWritableTimeStateTypeId@Base 0.30.0
 inputTypeMockWritableTimestampIntActionTypeId@Base 0.30.0
 inputTypeMockWritableTimestampIntActionWritableTimestampIntParamTypeId@Base 0.30.0
 inputTypeMockWritableTimestampIntEventTypeId@Base 0.30.0
 inputTypeMockWritableTimestampIntEventWritableTimestampIntParamTypeId@Base 0.30.0
 inputTypeMockWritableTimestampIntStateTypeId@Base 0.30.0
 inputTypeMockWritableTimestampUIntActionTypeId@Base 0.30.0
 inputTypeMockWritableTimestampUIntActionWritableTimestampUIntParamTypeId@Base 0.30.0
 inputTypeMockWritableTimestampUIntEventTypeId@Base 0.30.0
 inputTypeMockWritableTimestampUIntEventWritableTimestampUIntParamTypeId@Base 0.30.0
 inputTypeMockWritableTimestampUIntStateTypeId@Base 0.30.0
 inputTypeMockWritableUIntActionTypeId@Base 0.30.0
 inputTypeMockWritableUIntActionWritableUIntParamTypeId@Base 0.30.0
 inputTypeMockWritableUIntEventTypeId@Base 0.30.0
 inputTypeMockWritableUIntEventWritableUIntParamTypeId@Base 0.30.0
 inputTypeMockWritableUIntMinMaxActionTypeId@Base 0.30.0
 inputTypeMockWritableUIntMinMaxActionWritableUIntMinMaxParamTypeId@Base 0.30.0
 inputTypeMockWritableUIntMinMaxEventTypeId@Base 0.30.0
 inputTypeMockWritableUIntMinMaxEventWritableUIntMinMaxParamTypeId@Base 0.30.0
 inputTypeMockWritableUIntMinMaxStateTypeId@Base 0.30.0
 inputTypeMockWritableUIntStateTypeId@Base 0.30.0
 libnymea_api_version@Base 0.30.0
 mockAddToFavoritesBrowserItemActionTypeId@Base 0.30.0
 mockAsyncActionTypeId@Base 0.30.0
 mockAsyncFailingActionTypeId@Base 0.30.0
 mockAvailableVersionEventAvailableVersionParamTypeId@Base 0.30.0
 mockAvailableVersionEventTypeId@Base 0.30.0
 mockAvailableVersionStateTypeId@Base 0.30.0
 mockBatteryCriticalEventBatteryCriticalParamTypeId@Base 0.30.0
 mockBatteryCriticalEventTypeId@Base 0.30.0
 mockBatteryCriticalStateTypeId@Base 0.30.0
 mockBatteryLevelActionBatteryLevelParamTypeId@Base 0.30.0
 mockBatteryLevelActionTypeId@Base 0.30.0
 mockBatteryLevelEventBatteryLevelParamTypeId@Base 0.30.0
 mockBatteryLevelEventTypeId@Base 0.30.0
 mockBatteryLevelStateTypeId@Base 0.30.0
 mockBoolEventBoolParamTypeId@Base 0.30.0
 mockBoolEventTypeId@Base 0.30.0
 mockBoolStateTypeId@Base 0.30.0
 mockConnectedEventConnectedParamTypeId@Base 0.30.0
 mockConnectedEventTypeId@Base 0.30.0
 mockConnectedStateTypeId@Base 0.30.0
 mockCurrentVersionEventCurrentVersionParamTypeId@Base 0.30.0
 mockCurrentVersionEventTypeId@Base 0.30.0
 mockCurrentVersionStateTypeId@Base 0.30.0
 mockDiscoveryResultCountParamTypeId@Base 0.30.0
 mockDoubleEventDoubleParamTypeId@Base 0.30.0
 mockDoubleEventTypeId@Base 0.30.0
 mockDoubleStateTypeId@Base 0.30.0
 mockEvent1EventTypeId@Base 0.30.0
 mockEvent2EventIntParamParamTypeId@Base 0.30.0
 mockEvent2EventTypeId@Base 0.30.0
 mockFailingActionTypeId@Base 0.30.0
 mockIntEventIntParamTypeId@Base 0.30.0
 mockIntEventTypeId@Base 0.30.0
 mockIntStateTypeId@Base 0.30.0
 mockIntWithLimitsActionIntWithLimitsParamTypeId@Base 0.30.0
 mockIntWithLimitsActionTypeId@Base 0.30.0
 mockIntWithLimitsEventIntWithLimitsParamTypeId@Base 0.30.0
 mockIntWithLimitsEventTypeId@Base 0.30.0
 mockIntWithLimitsStateTypeId@Base 0.30.0
 mockPerformUpdateActionTypeId@Base 0.30.0
 mockPluginConfigParamBoolParamTypeId@Base 0.30.0
 mockPluginConfigParamIntParamTypeId@Base 0.30.0
 mockPowerActionPowerParamTypeId@Base 0.30.0
 mockPowerActionTypeId@Base 0.30.0
 mockPowerEventPowerParamTypeId@Base 0.30.0
 mockPowerEventTypeId@Base 0.30.0
 mockPowerStateTypeId@Base 0.30.0
 mockRemoveFromFavoritesBrowserItemActionTypeId@Base 0.30.0
 mockSettingsIntStateWithLimitsMaxValueParamTypeId@Base 0.30.0
 mockSettingsIntStateWithLimitsMinValueParamTypeId@Base 0.30.0
 mockSettingsSetting1ParamTypeId@Base 0.30.0
 mockSignalStrengthActionSignalStrengthParamTypeId@Base 0.30.0
 mockSignalStrengthActionTypeId@Base 0.30.0
 mockSignalStrengthEventSignalStrengthParamTypeId@Base 0.30.0
 mockSignalStrengthEventTypeId@Base 0.30.0
 mockSignalStrengthStateTypeId@Base 0.30.0
 mockThingAsyncParamTypeId@Base 0.30.0
 mockThingBrokenParamTypeId@Base 0.30.0
 mockThingClassId@Base 0.30.0
 mockThingHttpportParamTypeId@Base 0.30.0
 mockUpdateStatusActionTypeId@Base 0.30.0
 mockUpdateStatusActionUpdateStatusParamTypeId@Base 0.30.0
 mockUpdateStatusEventTypeId@Base 0.30.0
 mockUpdateStatusEventUpdateStatusParamTypeId@Base 0.30.0
 mockUpdateStatusStateTypeId@Base 0.30.0
 mockWithParamsActionParam1ParamTypeId@Base 0.30.0
 mockWithParamsActionParam2ParamTypeId@Base 0.30.0
 mockWithParamsActionTypeId@Base 0.30.0
 mockWithoutParamsActionTypeId@Base 0.30.0
 nymeaVendorId@Base 0.30.0
 oAuthGoogleMockThingClassId@Base 0.30.0
 oAuthSonosMockThingClassId@Base 0.30.0
 parentMockBoolValueActionBoolValueParamTypeId@Base 0.30.0
 parentMockBoolValueActionTypeId@Base 0.30.0
 parentMockBoolValueEventBoolValueParamTypeId@Base 0.30.0
 parentMockBoolValueEventTypeId@Base 0.30.0
 parentMockBoolValueStateTypeId@Base 0.30.0
 parentMockThingClassId@Base 0.30.0
 pluginId@Base 0.30.0
 pushButtonMockAllowedValuesActionAllowedValuesParamTypeId@Base 0.30.0
 pushButtonMockAllowedValuesActionTypeId@Base 0.30.0
 pushButtonMockAllowedValuesEventAllowedValuesParamTypeId@Base 0.30.0
 pushButtonMockAllowedValuesEventTypeId@Base 0.30.0
 pushButtonMockAllowedValuesStateTypeId@Base 0.30.0
 pushButtonMockBoolActionBoolParamTypeId@Base 0.30.0
 pushButtonMockBoolActionTypeId@Base 0.30.0
 pushButtonMockBoolEventBoolParamTypeId@Base 0.30.0
 pushButtonMockBoolEventTypeId@Base 0.30.0
 pushButtonMockBoolStateTypeId@Base 0.30.0
 pushButtonMockColorActionColorParamTypeId@Base 0.30.0
 pushButtonMockColorActionTypeId@Base 0.30.0
 pushButtonMockColorEventColorParamTypeId@Base 0.30.0
 pushButtonMockColorEventTypeId@Base 0.30.0
 pushButtonMockColorStateTypeId@Base 0.30.0
 pushButtonMockDiscoveryResultCountParamTypeId@Base 0.30.0
 pushButtonMockDoubleActionDoubleParamTypeId@Base 0.30.0
 pushButtonMockDoubleActionTypeId@Base 0.30.0
 pushButtonMockDoubleEventDoubleParamTypeId@Base 0.30.0
 pushButtonMockDoubleEventTypeId@Base 0.30.0
 pushButtonMockDoubleStateTypeId@Base 0.30.0
 pushButtonMockPercentageActionPercentageParamTypeId@Base 0.30.0
 pushButtonMockPercentageActionTypeId@Base 0.30.0
 pushButtonMockPercentageEventPercentageParamTypeId@Base 0.30.0
 pushButtonMockPercentageEventTypeId@Base 0.30.0
 pushButtonMockPercentageStateTypeId@Base 0.30.0
 pushButtonMockThingClassId@Base 0.30.0
 pushButtonMockTimeoutActionTypeId@Base 0.30.0
 userAndPassMockThingClassId@Base 0.30.0
 virtualIoLightMockPowerActionPowerParamTypeId@Base 0.30.0
 virtualIoLightMockPowerActionTypeId@Base 0.30.0
 virtualIoLightMockPowerEventPowerParamTypeId@Base 0.30.0
 virtualIoLightMockPowerEventTypeId@Base 0.30.0
 virtualIoLightMockPowerStateTypeId@Base 0.30.0
 virtualIoLightMockThingClassId@Base 0.30.0
 virtualIoTemperatureSensorMockInputActionInputParamTypeId@Base 0.30.0
 virtualIoTemperatureSensorMockInputActionTypeId@Base 0.30.0
 virtualIoTemperatureSensorMockInputEventInputParamTypeId@Base 0.30.0
 virtualIoTemperatureSensorMockInputEventTypeId@Base 0.30.0
 virtualIoTemperatureSensorMockInputStateTypeId@Base 0.30.0
 virtualIoTemperatureSensorMockSettingsMaxTempParamTypeId@Base 0.30.0
 virtualIoTemperatureSensorMockSettingsMinTempParamTypeId@Base 0.30.0
 virtualIoTemperatureSensorMockTemperatureEventTemperatureParamTypeId@Base 0.30.0
 virtualIoTemperatureSensorMockTemperatureEventTypeId@Base 0.30.0
 virtualIoTemperatureSensorMockTemperatureStateTypeId@Base 0.30.0
 virtualIoTemperatureSensorMockThingClassId@Base 0.30.0
libnymea.so.1 libnymea1 #MINVER#
 _Z10dcHardwarev@Base 0.30.0
 _Z10dcPlatformv@Base 0.30.0
 _Z11dcArpSocketv@Base 0.30.0
 _Z11dcBluetoothv@Base 0.30.0
 _Z11dcLogEnginev@Base 0.30.0
 _Z11dcTcpServerv@Base 0.30.0
 _Z11dcWebServerv@Base 0.30.0
 _Z11initLoggingRK7QStringb@Base 0.30.0
 _Z12closeLogFilev@Base 0.30.0
 _Z12dcAWSTrafficv@Base 0.30.0
 _Z12dcRuleEnginev@Base 0.30.0
 _Z13dcDebugServerv@Base 0.30.0
 _Z13dcExperiencesv@Base 0.30.0
 _Z13dcPingTrafficv@Base 0.30.0
 _Z13dcTimeManagerv@Base 0.30.0
 _Z13dcUserManagerv@Base 0.30.0
 _Z14dcCloudTrafficv@Base 0.30.0
 _Z14dcIntegrationsv@Base 0.30.0
 _Z14dcScriptEnginev@Base 0.30.0
 _Z14dcThingManagerv@Base 0.30.0
 _Z14dcTranslationsv@Base 0.30.0
 _Z15dcServerManagerv@Base 0.30.0
 _Z16dcJsonRpcTrafficv@Base 0.30.0
 _Z16dcNetworkManagerv@Base 0.30.0
 _Z16dcPlatformUpdatev@Base 0.30.0
 _Z17dcBluetoothServerv@Base 0.30.0
 _Z17dcRuleEngineDebugv@Base 0.30.0
 _Z17dcWebSocketServerv@Base 0.30.0
 _Z18dcArpSocketTrafficv@Base 0.30.0
 _Z18dcPlatformZeroConfv@Base 0.30.0
 _Z18dcStateValueFilterv@Base 0.30.0
 _Z18dcTcpServerTrafficv@Base 0.30.0
 _Z18dcWebServerTrafficv@Base 0.30.0
 _Z20dcMacAddressDatabasev@Base 0.30.0
 _Z22nymeaLogMessageHandler9QtMsgTypeRK18QMessageLogContextRK7QString@Base 0.30.0
 _Z22nymeaLoggingCategoriesv@Base 0.30.0
 _Z24dcBluetoothServerTrafficv@Base 0.30.0
 _Z24dcNetworkDeviceDiscoveryv@Base 0.30.0
 _Z24dcWebSocketServerTrafficv@Base 0.30.0
 _Z25qInitResources_interfacesv@Base 0.30.0
 _Z26nymeaInstallMessageHandlerPFv9QtMsgTypeRK18QMessageLogContextRK7QStringE@Base 0.30.0
 _Z28nymeaUninstallMessageHandlerPFv9QtMsgTypeRK18QMessageLogContextRK7QStringE@Base 0.30.0
 _Z28qCleanupResources_interfacesv@Base 0.30.0
 _Z5dcAWSv@Base 0.30.0
 _Z5dcI2Cv@Base 0.30.0
 _Z6dcCoapv@Base 0.30.0
 _Z6dcDBusv@Base 0.30.0
 _Z6dcMqttv@Base 0.30.0
 _Z6dcPingv@Base 0.30.0
 _Z6dcRestv@Base 0.30.0
 _Z6dcUpnpv@Base 0.30.0
 _Z7dcCloudv@Base 0.30.0
 _Z7dcThingv@Base 0.30.0
 _Z8dcOAuth2v@Base 0.30.0
 _Z8dcSystemv@Base 0.30.0
 _Z9dcApiKeysv@Base 0.30.0
 _Z9dcJsonRpcv@Base 0.30.0
 _ZGVZN9QtPrivate19ValueTypeIsMetaTypeI5QListI11EventTypeIdELb1EE17registerConverterEiE1f@Base 0.30.0
 _ZGVZN9QtPrivate19ValueTypeIsMetaTypeI5QListI12ActionTypeIdELb1EE17registerConverterEiE1f@Base 0.30.0
 _ZGVZN9QtPrivate19ValueTypeIsMetaTypeI5QListI5QUuidELb1EE17registerConverterEiE1f@Base 0.30.0
 _ZGVZN9QtPrivate19ValueTypeIsMetaTypeI5QListI9QDateTimeELb1EE17registerConverterEiE1f@Base 0.30.0
 _ZGVZN9QtPrivate19ValueTypeIsMetaTypeI5QListIiELb1EE17registerConverterEiE1f@Base 0.30.0
 _ZN10ActionType13setParamTypesERK10ParamTypes@Base 0.30.0
 _ZN10ActionType14setDisplayNameERK7QString@Base 0.30.0
 _ZN10ActionType14typePropertiesEv@Base 0.30.0
 _ZN10ActionType16staticMetaObjectE@Base 0.30.0
 _ZN10ActionType23mandatoryTypePropertiesEv@Base 0.30.0
 _ZN10ActionType7setNameERK7QString@Base 0.30.0
 _ZN10ActionType8setIndexERKi@Base 0.30.0
 _ZN10ActionTypeC1ERK12ActionTypeId@Base 0.30.0
 _ZN10ActionTypeC2ERK12ActionTypeId@Base 0.30.0
 _ZN10CoapOption16staticMetaObjectE@Base 0.30.0
 _ZN10CoapOption7setDataERK10QByteArray@Base 0.30.0
 _ZN10CoapOption9setOptionERKNS_6OptionE@Base 0.30.0
 _ZN10CoapOptionC1Ev@Base 0.30.0
 _ZN10CoapOptionC2Ev@Base 0.30.0
 _ZN10EventTypes10findByNameERK7QString@Base 0.30.0
 _ZN10EventTypes16staticMetaObjectE@Base 0.30.0
 _ZN10EventTypes3putERK8QVariant@Base 0.30.0
 _ZN10EventTypes8findByIdERK11EventTypeId@Base 0.30.0
 _ZN10EventTypesC1ERK5QListI9EventTypeE@Base 0.30.0
 _ZN10EventTypesC2ERK5QListI9EventTypeE@Base 0.30.0
 _ZN10EventTypesixERK7QString@Base 0.30.0
 _ZN10I2CManager11qt_metacallEN11QMetaObject4CallEiPPv@Base 0.30.0
 _ZN10I2CManager11qt_metacastEPKc@Base 0.30.0
 _ZN10I2CManager16staticMetaObjectE@Base 0.30.0
 _ZN10I2CManagerC1EP7QObject@Base 0.30.0
 _ZN10I2CManagerC2EP7QObject@Base 0.30.0
 _ZN10Interfaces10findByNameERK7QString@Base 0.30.0
 _ZN10InterfacesC1ERK5QListI9InterfaceE@Base 0.30.0
 _ZN10InterfacesC2ERK5QListI9InterfaceE@Base 0.30.0
 _ZN10ParamTypes16staticMetaObjectE@Base 0.30.0
 _ZN10ParamTypes3putERK8QVariant@Base 0.30.0
 _ZN10ParamTypesC1ERK5QListI9ParamTypeE@Base 0.30.0
 _ZN10ParamTypesC2ERK5QListI9ParamTypeE@Base 0.30.0
 _ZN10Repository10setEnabledEb@Base 0.30.0
 _ZN10Repository16staticMetaObjectE@Base 0.30.0
 _ZN10RepositoryC1ERK7QStringS2_b@Base 0.30.0
 _ZN10RepositoryC1Ev@Base 0.30.0
 _ZN10RepositoryC2ERK7QStringS2_b@Base 0.30.0
 _ZN10RepositoryC2Ev@Base 0.30.0
 _ZN10StateTypes10findByNameERK7QString@Base 0.30.0
 _ZN10StateTypes16staticMetaObjectE@Base 0.30.0
 _ZN10StateTypes3putERK8QVariant@Base 0.30.0
 _ZN10StateTypes8containsERK11StateTypeId@Base 0.30.0
 _ZN10StateTypes8containsERK7QString@Base 0.30.0
 _ZN10StateTypes8findByIdERK11StateTypeId@Base 0.30.0
 _ZN10StateTypesC1ERK5QListI9StateTypeE@Base 0.30.0
 _ZN10StateTypesC2ERK5QListI9StateTypeE@Base 0.30.0
 _ZN10StateTypesixERK7QString@Base 0.30.0
 _ZN10ThingClass12getStateTypeERK11StateTypeId@Base 0.30.0
 _ZN10ThingClass12setBrowsableEb@Base 0.30.0
 _ZN10ThingClass13setEventTypesERK10EventTypes@Base 0.30.0
 _ZN10ThingClass13setInterfacesERK11QStringList@Base 0.30.0
 _ZN10ThingClass13setParamTypesERK10ParamTypes@Base 0.30.0
 _ZN10ThingClass13setStateTypesERK10StateTypes@Base 0.30.0
 _ZN10ThingClass14setActionTypesERK11ActionTypes@Base 0.30.0
 _ZN10ThingClass14setDisplayNameERK7QString@Base 0.30.0
 _ZN10ThingClass14setSetupMethodENS_11SetupMethodE@Base 0.30.0
 _ZN10ThingClass16setCreateMethodsE6QFlagsINS_12CreateMethodEE@Base 0.30.0
 _ZN10ThingClass16setSettingsTypesERK10ParamTypes@Base 0.30.0
 _ZN10ThingClass16staticMetaObjectE@Base 0.30.0
 _ZN10ThingClass21setProvidedInterfacesERK11QStringList@Base 0.30.0
 _ZN10ThingClass22setDiscoveryParamTypesERK10ParamTypes@Base 0.30.0
 _ZN10ThingClass24hasBrowserItemActionTypeERK12ActionTypeId@Base 0.30.0
 _ZN10ThingClass25setBrowserItemActionTypesERK11ActionTypes@Base 0.30.0
 _ZN10ThingClass7setNameERK7QString@Base 0.30.0
 _ZN10ThingClassC1ERK8PluginIdRK8VendorIdRK12ThingClassId@Base 0.30.0
 _ZN10ThingClassC2ERK8PluginIdRK8VendorIdRK12ThingClassId@Base 0.30.0
 _ZN10ThingUtils11verifyParamE5QListI9ParamTypeERK5Param@Base 0.30.0
 _ZN10ThingUtils11verifyParamERK9ParamTypeRK5Param@Base 0.30.0
 _ZN10ThingUtils12verifyParamsE5QListI9ParamTypeERK9ParamList@Base 0.30.0
 _ZN10ThingUtils13allInterfacesEv@Base 0.30.0
 _ZN10ThingUtils13loadInterfaceERK7QString@Base 0.30.0
 _ZN10ThingUtils15mergeInterfacesERK9InterfaceS2_@Base 0.30.0
 _ZN10ThingUtils27generateInterfaceParentListERK7QString@Base 0.30.0
 _ZN10ThingUtilsC1Ev@Base 0.30.0
 _ZN10ThingUtilsC2Ev@Base 0.30.0
 _ZN10UpnpDevice11qt_metacallEN11QMetaObject4CallEiPPv@Base 0.30.0
 _ZN10UpnpDevice11qt_metacastEPKc@Base 0.30.0
 _ZN10UpnpDevice11setLocationERK4QUrl@Base 0.30.0
 _ZN10UpnpDevice11setModelURLERK4QUrl@Base 0.30.0
 _ZN10UpnpDevice12setModelNameERK7QString@Base 0.30.0
 _ZN10UpnpDevice13setDeviceTypeERK7QString@Base 0.30.0
 _ZN10UpnpDevice14setHostAddressERK12QHostAddress@Base 0.30.0
 _ZN10UpnpDevice14setModelNumberERK7QString@Base 0.30.0
 _ZN10UpnpDevice15setFriendlyNameERK7QString@Base 0.30.0
 _ZN10UpnpDevice15setManufacturerERK7QString@Base 0.30.0
 _ZN10UpnpDevice15setSerialNumberERK7QString@Base 0.30.0
 _ZN10UpnpDevice16staticMetaObjectE@Base 0.30.0
 _ZN10UpnpDevice18setManufacturerURLERK4QUrl@Base 0.30.0
 _ZN10UpnpDevice19setModelDescriptionERK7QString@Base 0.30.0
 _ZN10UpnpDevice6setUpcERK7QString@Base 0.30.0
 _ZN10UpnpDevice7setPortERKi@Base 0.30.0
 _ZN10UpnpDevice7setUuidERK7QString@Base 0.30.0
 _ZN10UpnpDevice8locationEv@Base 0.30.0
 _ZN10UpnpDeviceC1EP7QObject20UpnpDeviceDescriptor@Base 0.30.0
 _ZN10UpnpDeviceC2EP7QObject20UpnpDeviceDescriptor@Base 0.30.0
 _ZN11ActionTypes10findByNameERK7QString@Base 0.30.0
 _ZN11ActionTypes16staticMetaObjectE@Base 0.30.0
 _ZN11ActionTypes3putERK8QVariant@Base 0.30.0
 _ZN11ActionTypes8findByIdERK12ActionTypeId@Base 0.30.0
 _ZN11ActionTypesC1ERK5QListI10ActionTypeE@Base 0.30.0
 _ZN11ActionTypesC2ERK5QListI10ActionTypeE@Base 0.30.0
 _ZN11ActionTypesixERK7QString@Base 0.30.0
 _ZN11BrowserItem11setDisabledEb@Base 0.30.0
 _ZN11BrowserItem12setBrowsableEb@Base 0.30.0
 _ZN11BrowserItem12setThumbnailERK7QString@Base 0.30.0
 _ZN11BrowserItem13setExecutableEb@Base 0.30.0
 _ZN11BrowserItem14setDescriptionERK7QString@Base 0.30.0
 _ZN11BrowserItem14setDisplayNameERK7QString@Base 0.30.0
 _ZN11BrowserItem16setActionTypeIdsERK5QListI12ActionTypeIdE@Base 0.30.0
 _ZN11BrowserItem16staticMetaObjectE@Base 0.30.0
 _ZN11BrowserItem5setIdERK7QString@Base 0.30.0
 _ZN11BrowserItem7setIconENS_11BrowserIconE@Base 0.30.0
 _ZN11BrowserItemC1ERK7QStringS2_bb@Base 0.30.0
 _ZN11BrowserItemC2ERK7QStringS2_bb@Base 0.30.0
 _ZN11CoapRequest14setContentTypeEN7CoapPdu11ContentTypeE@Base 0.30.0
 _ZN11CoapRequest14setMessageTypeERKN7CoapPdu11MessageTypeE@Base 0.30.0
 _ZN11CoapRequest6setUrlERK4QUrl@Base 0.30.0
 _ZN11CoapRequestC1ERK4QUrl@Base 0.30.0
 _ZN11CoapRequestC2ERK4QUrl@Base 0.30.0
 _ZN11JsonContext8setTokenERK10QByteArray@Base 0.30.0
 _ZN11JsonContextC1ERK5QUuidRK7QLocale@Base 0.30.0
 _ZN11JsonContextC2ERK5QUuidRK7QLocale@Base 0.30.0
 _ZN11JsonHandler11qt_metacallEN11QMetaObject4CallEiPPv@Base 0.30.0
 _ZN11JsonHandler11qt_metacastEPKc@Base 0.30.0
 _ZN11JsonHandler14registerMethodERK7QStringS2_RK4QMapIS0_8QVariantES7_S2_@Base 0.30.0
 _ZN11JsonHandler14registerObjectERK11QMetaObject@Base 0.30.0
 _ZN11JsonHandler14registerObjectERK11QMetaObjectS2_@Base 0.30.0
 _ZN11JsonHandler14registerObjectERK7QStringRK4QMapIS0_8QVariantE@Base 0.30.0
 _ZN11JsonHandler16staticMetaObjectE@Base 0.30.0
 _ZN11JsonHandler20registerNotificationERK7QStringS2_RK4QMapIS0_8QVariantES2_@Base 0.30.0
 _ZN11JsonHandler21translateNotificationERK7QStringRK4QMapIS0_8QVariantERK7QLocale@Base 0.30.0
 _ZN11JsonHandler22basicTypeToVariantTypeENS_9BasicTypeE@Base 0.30.0
 _ZN11JsonHandler22variantTypeToBasicTypeEN8QVariant4TypeE@Base 0.30.0
 _ZN11JsonHandler9objectRefERK7QString@Base 0.30.0
 _ZN11JsonHandlerC1EP7QObject@Base 0.30.0
 _ZN11JsonHandlerC2EP7QObject@Base 0.30.0
 _ZN11MqttChannel11qt_metacallEN11QMetaObject4CallEiPPv@Base 0.30.0
 _ZN11MqttChannel11qt_metacastEPKc@Base 0.30.0
 _ZN11MqttChannel15clientConnectedEPS_@Base 0.30.0
 _ZN11MqttChannel15publishReceivedEPS_RK7QStringRK10QByteArray@Base 0.30.0
 _ZN11MqttChannel16staticMetaObjectE@Base 0.30.0
 _ZN11MqttChannel18clientDisconnectedEPS_@Base 0.30.0
 _ZN11MqttChannelC1EP7QObject@Base 0.30.0
 _ZN11MqttChannelC2EP7QObject@Base 0.30.0
 _ZN11MqttChannelD0Ev@Base 0.30.0
 _ZN11MqttChannelD1Ev@Base 0.30.0
 _ZN11MqttChannelD2Ev@Base 0.30.0
 _ZN11PluginTimer11qt_metacallEN11QMetaObject4CallEiPPv@Base 0.30.0
 _ZN11PluginTimer11qt_metacastEPKc@Base 0.30.0
 _ZN11PluginTimer13pausedChangedERKb@Base 0.30.0
 _ZN11PluginTimer14runningChangedERKb@Base 0.30.0
 _ZN11PluginTimer16staticMetaObjectE@Base 0.30.0
 _ZN11PluginTimer18currentTickChangedERKi@Base 0.30.0
 _ZN11PluginTimer7timeoutEv@Base 0.30.0
 _ZN11PluginTimerC1EP7QObject@Base 0.30.0
 _ZN11PluginTimerC2EP7QObject@Base 0.30.0
 _ZN11ServiceData10setThingIdERK7ThingId@Base 0.30.0
 _ZN11ServiceData12setTimestampERK9QDateTime@Base 0.30.0
 _ZN11ServiceData6insertE5QHashI7QString8QVariantE@Base 0.30.0
 _ZN11ServiceData6insertERK7QStringRK8QVariant@Base 0.30.0
 _ZN11ServiceDataC1ERK7ThingIdRK9QDateTime@Base 0.30.0
 _ZN11ServiceDataC2ERK7ThingIdRK9QDateTime@Base 0.30.0
 _ZN12BrowseResult11qt_metacallEN11QMetaObject4CallEiPPv@Base 0.30.0
 _ZN12BrowseResult11qt_metacastEPKc@Base 0.30.0
 _ZN12BrowseResult16staticMetaObjectE@Base 0.30.0
 _ZN12BrowseResult24translatedDisplayMessageERK7QLocale@Base 0.30.0
 _ZN12BrowseResult6finishEN5Thing10ThingErrorERK7QString@Base 0.30.0
 _ZN12BrowseResult7abortedEv@Base 0.30.0
 _ZN12BrowseResult7addItemERK11BrowserItem@Base 0.30.0
 _ZN12BrowseResult8addItemsERK12BrowserItems@Base 0.30.0
 _ZN12BrowseResult8finishedEv@Base 0.30.0
 _ZN12BrowseResultC1EP5ThingP12ThingManagerRK7QStringRK7QLocaleP7QObjectj@Base 0.30.0
 _ZN12BrowseResultC2EP5ThingP12ThingManagerRK7QStringRK7QLocaleP7QObjectj@Base 0.30.0
 _ZN12BrowserItemsC1ERK5QListI11BrowserItemE@Base 0.30.0
 _ZN12BrowserItemsC1Ev@Base 0.30.0
 _ZN12BrowserItemsC2ERK5QListI11BrowserItemE@Base 0.30.0
 _ZN12BrowserItemsC2Ev@Base 0.30.0
 _ZN12CalendarItem11setDateTimeERK9QDateTime@Base 0.30.0
 _ZN12CalendarItem11setDurationERKj@Base 0.30.0
 _ZN12CalendarItem12setStartTimeERK5QTime@Base 0.30.0
 _ZN12CalendarItem16staticMetaObjectE@Base 0.30.0
 _ZN12CalendarItem18setRepeatingOptionERK15RepeatingOption@Base 0.30.0
 _ZN12CalendarItemC1Ev@Base 0.30.0
 _ZN12CalendarItemC2Ev@Base 0.30.0
 _ZN12CoapPduBlock11createBlockERKiS1_RKb@Base 0.30.0
 _ZN12CoapPduBlockC1ERK10QByteArray@Base 0.30.0
 _ZN12CoapPduBlockC1Ev@Base 0.30.0
 _ZN12CoapPduBlockC2ERK10QByteArray@Base 0.30.0
 _ZN12CoapPduBlockC2Ev@Base 0.30.0
 _ZN12IOConnection16staticMetaObjectE@Base 0.30.0
 _ZN12IOConnectionC1ERK14IOConnectionIdRK7ThingIdRK11StateTypeIdS5_S8_b@Base 0.30.0
 _ZN12IOConnectionC1Ev@Base 0.30.0
 _ZN12IOConnectionC2ERK14IOConnectionIdRK7ThingIdRK11StateTypeIdS5_S8_b@Base 0.30.0
 _ZN12IOConnectionC2Ev@Base 0.30.0
 _ZN12MqttProvider11qt_metacallEN11QMetaObject4CallEiPPv@Base 0.30.0
 _ZN12MqttProvider11qt_metacastEPKc@Base 0.30.0
 _ZN12MqttProvider16staticMetaObjectE@Base 0.30.0
 _ZN12MqttProviderC1EP7QObject@Base 0.30.0
 _ZN12MqttProviderC2EP7QObject@Base 0.30.0
 _ZN12NetworkUtils25getInterfaceForMacAddressERK7QString@Base 0.30.0
 _ZN12NetworkUtils26getInterfaceForHostaddressERK12QHostAddress@Base 0.30.0
 _ZN12NetworkUtilsC1Ev@Base 0.30.0
 _ZN12NetworkUtilsC2Ev@Base 0.30.0
 _ZN12Repositories16staticMetaObjectE@Base 0.30.0
 _ZN12Repositories3putERK8QVariant@Base 0.30.0
 _ZN12RepositoriesC1ERK5QListI10RepositoryE@Base 0.30.0
 _ZN12RepositoriesC1Ev@Base 0.30.0
 _ZN12RepositoriesC2ERK5QListI10RepositoryE@Base 0.30.0
 _ZN12RepositoriesC2Ev@Base 0.30.0
 _ZN12ThingClasses16staticMetaObjectE@Base 0.30.0
 _ZN12ThingClasses3putERK8QVariant@Base 0.30.0
 _ZN12ThingClassesC1ERK5QListI10ThingClassE@Base 0.30.0
 _ZN12ThingClassesC1Ev@Base 0.30.0
 _ZN12ThingClassesC2ERK5QListI10ThingClassE@Base 0.30.0
 _ZN12ThingClassesC2Ev@Base 0.30.0
 _ZN12ThingManager10thingAddedEP5Thing@Base 0.30.0
 _ZN12ThingManager11qt_metacallEN11QMetaObject4CallEiPPv@Base 0.30.0
 _ZN12ThingManager11qt_metacastEPKc@Base 0.30.0
 _ZN12ThingManager12thingChangedEP5Thing@Base 0.30.0
 _ZN12ThingManager12thingRemovedERK7ThingId@Base 0.30.0
 _ZN12ThingManager14actionExecutedERK6ActionN5Thing10ThingErrorE@Base 0.30.0
 _ZN12ThingManager14eventTriggeredERK5Event@Base 0.30.0
 _ZN12ThingManager16staticMetaObjectE@Base 0.30.0
 _ZN12ThingManager16thingDisappearedERK7ThingId@Base 0.30.0
 _ZN12ThingManager17ioConnectionAddedERK12IOConnection@Base 0.30.0
 _ZN12ThingManager17thingStateChangedEP5ThingRK11StateTypeIdRK8QVariantS7_S7_@Base 0.30.0
 _ZN12ThingManager19ioConnectionRemovedERK14IOConnectionId@Base 0.30.0
 _ZN12ThingManager19pluginConfigChangedERK8PluginIdRK9ParamList@Base 0.30.0
 _ZN12ThingManager19thingSettingChangedERK7ThingIdRK11ParamTypeIdRK8QVariant@Base 0.30.0
 _ZN12ThingManager9connectIOERK7ThingIdRK11StateTypeIdS2_S5_b@Base 0.30.0
 _ZN12ThingManagerC1EP7QObject@Base 0.30.0
 _ZN12ThingManagerC2EP7QObject@Base 0.30.0
 _ZN13ApiKeyStorage10keyUpdatedERK7QStringRK6ApiKey@Base 0.30.0
 _ZN13ApiKeyStorage11qt_metacallEN11QMetaObject4CallEiPPv@Base 0.30.0
 _ZN13ApiKeyStorage11qt_metacastEPKc@Base 0.30.0
 _ZN13ApiKeyStorage16staticMetaObjectE@Base 0.30.0
 _ZN13ApiKeyStorage8keyAddedERK7QStringRK6ApiKey@Base 0.30.0
 _ZN13ApiKeyStorage9insertKeyERK7QStringRK6ApiKey@Base 0.30.0
 _ZN13ApiKeyStorageC1EP7QObject@Base 0.30.0
 _ZN13ApiKeyStorageC2EP7QObject@Base 0.30.0
 _ZN13BrowserActionC1ERK7ThingIdRK7QString@Base 0.30.0
 _ZN13BrowserActionC1ERKS_@Base 0.30.0
 _ZN13BrowserActionC2ERK7ThingIdRK7QString@Base 0.30.0
 _ZN13BrowserActionC2ERKS_@Base 0.30.0
 _ZN13BrowserActionaSERKS_@Base 0.30.0
 _ZN13CalendarItems16staticMetaObjectE@Base 0.30.0
 _ZN13CalendarItems3putERK8QVariant@Base 0.30.0
 _ZN13CalendarItemsC1ERK5QListI12CalendarItemE@Base 0.30.0
 _ZN13CalendarItemsC1Ev@Base 0.30.0
 _ZN13CalendarItemsC2ERK5QListI12CalendarItemE@Base 0.30.0
 _ZN13CalendarItemsC2Ev@Base 0.30.0
 _ZN13IOConnections16staticMetaObjectE@Base 0.30.0
 _ZN13IOConnections3putERK8QVariant@Base 0.30.0
 _ZN13NymeaSettings10beginGroupERK7QString@Base 0.30.0
 _ZN13NymeaSettings11qt_metacallEN11QMetaObject4CallEiPPv@Base 0.30.0
 _ZN13NymeaSettings11qt_metacastEPKc@Base 0.30.0
 _ZN13NymeaSettings11storagePathEv@Base 0.30.0
 _ZN13NymeaSettings12settingsPathEv@Base 0.30.0
 _ZN13NymeaSettings13setArrayIndexEi@Base 0.30.0
 _ZN13NymeaSettings14beginReadArrayERK7QString@Base 0.30.0
 _ZN13NymeaSettings15beginWriteArrayERK7QString@Base 0.30.0
 _ZN13NymeaSettings16staticMetaObjectE@Base 0.30.0
 _ZN13NymeaSettings16translationsPathEv@Base 0.30.0
 _ZN13NymeaSettings5clearEv@Base 0.30.0
 _ZN13NymeaSettings6isRootEv@Base 0.30.0
 _ZN13NymeaSettings6removeERK7QString@Base 0.30.0
 _ZN13NymeaSettings8endArrayEv@Base 0.30.0
 _ZN13NymeaSettings8endGroupEv@Base 0.30.0
 _ZN13NymeaSettings8setValueERK7QStringRK8QVariant@Base 0.30.0
 _ZN13NymeaSettingsC1ERKNS_12SettingsRoleEP7QObject@Base 0.30.0
 _ZN13NymeaSettingsC2ERKNS_12SettingsRoleEP7QObject@Base 0.30.0
 _ZN13NymeaSettingsD0Ev@Base 0.30.0
 _ZN13NymeaSettingsD1Ev@Base 0.30.0
 _ZN13NymeaSettingsD2Ev@Base 0.30.0
 _ZN13TimeEventItem11setDateTimeERK9QDateTime@Base 0.30.0
 _ZN13TimeEventItem16staticMetaObjectE@Base 0.30.0
 _ZN13TimeEventItem18setRepeatingOptionERK15RepeatingOption@Base 0.30.0
 _ZN13TimeEventItem7setTimeERK5QTime@Base 0.30.0
 _ZN13TimeEventItemC1Ev@Base 0.30.0
 _ZN13TimeEventItemC2Ev@Base 0.30.0
 _ZN13UpnpDiscovery10upnpNotifyERK10QByteArray@Base 0.30.0
 _ZN13UpnpDiscovery11qt_metacallEN11QMetaObject4CallEiPPv@Base 0.30.0
 _ZN13UpnpDiscovery11qt_metacastEPKc@Base 0.30.0
 _ZN13UpnpDiscovery16staticMetaObjectE@Base 0.30.0
 _ZN13UpnpDiscoveryC1EP7QObject@Base 0.30.0
 _ZN13UpnpDiscoveryC2EP7QObject@Base 0.30.0
 _ZN13ZigbeeHandlerC1Ev@Base 0.30.0
 _ZN13ZigbeeHandlerC2Ev@Base 0.30.0
 _ZN14CoreLinkParser11qt_metacallEN11QMetaObject4CallEiPPv@Base 0.30.0
 _ZN14CoreLinkParser11qt_metacastEPKc@Base 0.30.0
 _ZN14CoreLinkParser16staticMetaObjectE@Base 0.30.0
 _ZN14CoreLinkParserC1ERK10QByteArrayP7QObject@Base 0.30.0
 _ZN14CoreLinkParserC2ERK10QByteArrayP7QObject@Base 0.30.0
 _ZN14ModbusRtuReply11qt_metacallEN11QMetaObject4CallEiPPv@Base 0.30.0
 _ZN14ModbusRtuReply11qt_metacastEPKc@Base 0.30.0
 _ZN14ModbusRtuReply13errorOccurredENS_5ErrorE@Base 0.30.0
 _ZN14ModbusRtuReply16staticMetaObjectE@Base 0.30.0
 _ZN14ModbusRtuReply8finishedEv@Base 0.30.0
 _ZN14PluginMetadata12verifyFieldsERK11QStringListS2_RK11QJsonObject@Base 0.30.0
 _ZN14PluginMetadata15parseParamTypesERK10QJsonArray@Base 0.30.0
 _ZN14PluginMetadata17loadAndVerifyUnitERK7QString@Base 0.30.0
 _ZN14PluginMetadata19verifyDuplicateUuidERK5QUuid@Base 0.30.0
 _ZN14PluginMetadata22loadAndVerifyInputTypeERK7QString@Base 0.30.0
 _ZN14PluginMetadata5parseERK11QJsonObject@Base 0.30.0
 _ZN14PluginMetadataC1ERK11QJsonObjectbb@Base 0.30.0
 _ZN14PluginMetadataC1Ev@Base 0.30.0
 _ZN14PluginMetadataC2ERK11QJsonObjectbb@Base 0.30.0
 _ZN14PluginMetadataC2Ev@Base 0.30.0
 _ZN14ThingSetupInfo11qt_metacallEN11QMetaObject4CallEiPPv@Base 0.30.0
 _ZN14ThingSetupInfo11qt_metacastEPKc@Base 0.30.0
 _ZN14ThingSetupInfo16staticMetaObjectE@Base 0.30.0
 _ZN14ThingSetupInfo24translatedDisplayMessageERK7QLocale@Base 0.30.0
 _ZN14ThingSetupInfo6finishEN5Thing10ThingErrorERK7QString@Base 0.30.0
 _ZN14ThingSetupInfo7abortedEv@Base 0.30.0
 _ZN14ThingSetupInfo8finishedEv@Base 0.30.0
 _ZN14ThingSetupInfoC1EP5ThingP12ThingManagerj@Base 0.30.0
 _ZN14ThingSetupInfoC2EP5ThingP12ThingManagerj@Base 0.30.0
 _ZN14TimeDescriptor16setCalendarItemsERK13CalendarItems@Base 0.30.0
 _ZN14TimeDescriptor16staticMetaObjectE@Base 0.30.0
 _ZN14TimeDescriptor17setTimeEventItemsERK14TimeEventItems@Base 0.30.0
 _ZN14TimeDescriptorC1Ev@Base 0.30.0
 _ZN14TimeDescriptorC2Ev@Base 0.30.0
 _ZN14TimeEventItems16staticMetaObjectE@Base 0.30.0
 _ZN14TimeEventItems3putERK8QVariant@Base 0.30.0
 _ZN14TimeEventItemsC1ERK5QListI13TimeEventItemE@Base 0.30.0
 _ZN14TimeEventItemsC1Ev@Base 0.30.0
 _ZN14TimeEventItemsC2ERK5QListI13TimeEventItemE@Base 0.30.0
 _ZN14TimeEventItemsC2Ev@Base 0.30.0
 _ZN15ApiKeysProvider11qt_metacallEN11QMetaObject4CallEiPPv@Base 0.30.0
 _ZN15ApiKeysProvider11qt_metacastEPKc@Base 0.30.0
 _ZN15ApiKeysProvider16staticMetaObjectE@Base 0.30.0
 _ZN15ApiKeysProviderC1EP7QObject@Base 0.30.0
 _ZN15ApiKeysProviderC2EP7QObject@Base 0.30.0
 _ZN15EventDescriptor10setThingIdERK7ThingId@Base 0.30.0
 _ZN15EventDescriptor12setInterfaceERK7QString@Base 0.30.0
 _ZN15EventDescriptor14setEventTypeIdERK11EventTypeId@Base 0.30.0
 _ZN15EventDescriptor16staticMetaObjectE@Base 0.30.0
 _ZN15EventDescriptor17setInterfaceEventERK7QString@Base 0.30.0
 _ZN15EventDescriptor19setParamDescriptorsERK5QListI15ParamDescriptorE@Base 0.30.0
 _ZN15EventDescriptorC1ERK11EventTypeIdRK7ThingIdRK5QListI15ParamDescriptorE@Base 0.30.0
 _ZN15EventDescriptorC1ERK7QStringS2_RK5QListI15ParamDescriptorE@Base 0.30.0
 _ZN15EventDescriptorC1Ev@Base 0.30.0
 _ZN15EventDescriptorC2ERK11EventTypeIdRK7ThingIdRK5QListI15ParamDescriptorE@Base 0.30.0
 _ZN15EventDescriptorC2ERK7QStringS2_RK5QListI15ParamDescriptorE@Base 0.30.0
 _ZN15EventDescriptorC2Ev@Base 0.30.0
 _ZN15HardwareManager11qt_metacallEN11QMetaObject4CallEiPPv@Base 0.30.0
 _ZN15HardwareManager11qt_metacastEPKc@Base 0.30.0
 _ZN15HardwareManager16staticMetaObjectE@Base 0.30.0
 _ZN15HardwareManager18setResourceEnabledEP16HardwareResourceb@Base 0.30.0
 _ZN15HardwareManagerC1EP7QObject@Base 0.30.0
 _ZN15HardwareManagerC2EP7QObject@Base 0.30.0
 _ZN15ModbusRtuMaster11qt_metacallEN11QMetaObject4CallEiPPv@Base 0.30.0
 _ZN15ModbusRtuMaster11qt_metacastEPKc@Base 0.30.0
 _ZN15ModbusRtuMaster13parityChangedEN11QSerialPort6ParityE@Base 0.30.0
 _ZN15ModbusRtuMaster14timeoutChangedEi@Base 0.30.0
 _ZN15ModbusRtuMaster15baudrateChangedEj@Base 0.30.0
 _ZN15ModbusRtuMaster15dataBitsChangedEN11QSerialPort8DataBitsE@Base 0.30.0
 _ZN15ModbusRtuMaster15stopBitsChangedEN11QSerialPort8StopBitsE@Base 0.30.0
 _ZN15ModbusRtuMaster16connectedChangedEb@Base 0.30.0
 _ZN15ModbusRtuMaster16staticMetaObjectE@Base 0.30.0
 _ZN15ModbusRtuMaster17serialPortChangedERK7QString@Base 0.30.0
 _ZN15ModbusRtuMaster22numberOfRetriesChangedEi@Base 0.30.0
 _ZN15ParamDescriptor12setParamNameERK7QString@Base 0.30.0
 _ZN15ParamDescriptor15setOperatorTypeEN5Types13ValueOperatorE@Base 0.30.0
 _ZN15ParamDescriptor16staticMetaObjectE@Base 0.30.0
 _ZN15ParamDescriptorC1ERK11ParamTypeIdRK8QVariant@Base 0.30.0
 _ZN15ParamDescriptorC1ERK7QStringRK8QVariant@Base 0.30.0
 _ZN15ParamDescriptorC2ERK11ParamTypeIdRK8QVariant@Base 0.30.0
 _ZN15ParamDescriptorC2ERK7QStringRK8QVariant@Base 0.30.0
 _ZN15RepeatingOption11setWeekDaysERK5QListIiE@Base 0.30.0
 _ZN15RepeatingOption12setMonthDaysERK5QListIiE@Base 0.30.0
 _ZN15RepeatingOption16staticMetaObjectE@Base 0.30.0
 _ZN15RepeatingOption7setModeENS_13RepeatingModeE@Base 0.30.0
 _ZN15RepeatingOptionC1ERKNS_13RepeatingModeERK5QListIiES6_@Base 0.30.0
 _ZN15RepeatingOptionC1Ev@Base 0.30.0
 _ZN15RepeatingOptionC2ERKNS_13RepeatingModeERK5QListIiES6_@Base 0.30.0
 _ZN15RepeatingOptionC2Ev@Base 0.30.0
 _ZN15StateDescriptor10setThingIdERK7ThingId@Base 0.30.0
 _ZN15StateDescriptor12setInterfaceERK7QString@Base 0.30.0
 _ZN15StateDescriptor13setStateValueERK8QVariant@Base 0.30.0
 _ZN15StateDescriptor14setStateTypeIdERK11StateTypeId@Base 0.30.0
 _ZN15StateDescriptor15setOperatorTypeEN5Types13ValueOperatorE@Base 0.30.0
 _ZN15StateDescriptor15setValueThingIdERK7ThingId@Base 0.30.0
 _ZN15StateDescriptor16staticMetaObjectE@Base 0.30.0
 _ZN15StateDescriptor17setInterfaceStateERK7QString@Base 0.30.0
 _ZN15StateDescriptor19setValueStateTypeIdERK11StateTypeId@Base 0.30.0
 _ZN15StateDescriptorC1ERK11StateTypeIdRK7ThingIdRK8QVariantN5Types13ValueOperatorE@Base 0.30.0
 _ZN15StateDescriptorC1ERK7QStringS2_RK8QVariantN5Types13ValueOperatorE@Base 0.30.0
 _ZN15StateDescriptorC1Ev@Base 0.30.0
 _ZN15StateDescriptorC2ERK11StateTypeIdRK7ThingIdRK8QVariantN5Types13ValueOperatorE@Base 0.30.0
 _ZN15StateDescriptorC2ERK7QStringS2_RK8QVariantN5Types13ValueOperatorE@Base 0.30.0
 _ZN15StateDescriptorC2Ev@Base 0.30.0
 _ZN15ThingActionInfo11qt_metacallEN11QMetaObject4CallEiPPv@Base 0.30.0
 _ZN15ThingActionInfo11qt_metacastEPKc@Base 0.30.0
 _ZN15ThingActionInfo16staticMetaObjectE@Base 0.30.0
 _ZN15ThingActionInfo24translatedDisplayMessageERK7QLocale@Base 0.30.0
 _ZN15ThingActionInfo6finishEN5Thing10ThingErrorERK7QString@Base 0.30.0
 _ZN15ThingActionInfo7abortedEv@Base 0.30.0
 _ZN15ThingActionInfo8finishedEv@Base 0.30.0
 _ZN15ThingActionInfoC1EP5ThingRK6ActionP12ThingManagerj@Base 0.30.0
 _ZN15ThingActionInfoC2EP5ThingRK6ActionP12ThingManagerj@Base 0.30.0
 _ZN15ThingDescriptor10setThingIdERK7ThingId@Base 0.30.0
 _ZN15ThingDescriptor11setParentIdERK7ThingId@Base 0.30.0
 _ZN15ThingDescriptor14setDescriptionERK7QString@Base 0.30.0
 _ZN15ThingDescriptor16staticMetaObjectE@Base 0.30.0
 _ZN15ThingDescriptor8setTitleERK7QString@Base 0.30.0
 _ZN15ThingDescriptor9setParamsERK9ParamList@Base 0.30.0
 _ZN15ThingDescriptorC1ERK12ThingClassIdRK7QStringS5_RK7ThingId@Base 0.30.0
 _ZN15ThingDescriptorC1ERK17ThingDescriptorIdRK12ThingClassIdRK7QStringS8_RK7ThingId@Base 0.30.0
 _ZN15ThingDescriptorC1Ev@Base 0.30.0
 _ZN15ThingDescriptorC2ERK12ThingClassIdRK7QStringS5_RK7ThingId@Base 0.30.0
 _ZN15ThingDescriptorC2ERK17ThingDescriptorIdRK12ThingClassIdRK7QStringS8_RK7ThingId@Base 0.30.0
 _ZN15ThingDescriptorC2Ev@Base 0.30.0
 _ZN16EventDescriptors16staticMetaObjectE@Base 0.30.0
 _ZN16EventDescriptors3putERK8QVariant@Base 0.30.0
 _ZN16EventDescriptorsC1ERK5QListI15EventDescriptorE@Base 0.30.0
 _ZN16EventDescriptorsC1Ev@Base 0.30.0
 _ZN16EventDescriptorsC2ERK5QListI15EventDescriptorE@Base 0.30.0
 _ZN16EventDescriptorsC2Ev@Base 0.30.0
 _ZN16ExperiencePlugin10initPluginEP12ThingManagerP13JsonRPCServer@Base 0.30.0
 _ZN16ExperiencePlugin11qt_metacallEN11QMetaObject4CallEiPPv@Base 0.30.0
 _ZN16ExperiencePlugin11qt_metacastEPKc@Base 0.30.0
 _ZN16ExperiencePlugin12thingManagerEv@Base 0.30.0
 _ZN16ExperiencePlugin13jsonRpcServerEv@Base 0.30.0
 _ZN16ExperiencePlugin16staticMetaObjectE@Base 0.30.0
 _ZN16ExperiencePlugin4initEv@Base 0.30.0
 _ZN16ExperiencePluginC1EP7QObject@Base 0.30.0
 _ZN16ExperiencePluginC2EP7QObject@Base 0.30.0
 _ZN16HardwareResource11qt_metacallEN11QMetaObject4CallEiPPv@Base 0.30.0
 _ZN16HardwareResource11qt_metacastEPKc@Base 0.30.0
 _ZN16HardwareResource14enabledChangedEb@Base 0.30.0
 _ZN16HardwareResource16availableChangedEb@Base 0.30.0
 _ZN16HardwareResource16staticMetaObjectE@Base 0.30.0
 _ZN16HardwareResourceC1ERK7QStringP7QObject@Base 0.30.0
 _ZN16HardwareResourceC2ERK7QStringP7QObject@Base 0.30.0
 _ZN16MediaBrowserItem12setMediaIconENS_16MediaBrowserIconE@Base 0.30.0
 _ZN16MediaBrowserItem12setPlayCountEi@Base 0.30.0
 _ZN16MediaBrowserItem16staticMetaObjectE@Base 0.30.0
 _ZN16MediaBrowserItemC1ERK7QStringS2_bb@Base 0.30.0
 _ZN16MediaBrowserItemC2ERK7QStringS2_bb@Base 0.30.0
 _ZN16NymeaDBusService10setBusTypeEN15QDBusConnection7BusTypeE@Base 0.30.0
 _ZN16NymeaDBusService11qt_metacallEN11QMetaObject4CallEiPPv@Base 0.30.0
 _ZN16NymeaDBusService11qt_metacastEPKc@Base 0.30.0
 _ZN16NymeaDBusService16staticMetaObjectE@Base 0.30.0
 _ZN16NymeaDBusService7isValidEv@Base 0.30.0
 _ZN16NymeaDBusService9s_busTypeE@Base 0.30.0
 _ZN16NymeaDBusServiceC1ERK7QStringP7QObject@Base 0.30.0
 _ZN16NymeaDBusServiceC2ERK7QStringP7QObject@Base 0.30.0
 _ZN16ParamDescriptors16staticMetaObjectE@Base 0.30.0
 _ZN16ParamDescriptors3putERK8QVariant@Base 0.30.0
 _ZN16ParamDescriptorsC1ERK5QListI15ParamDescriptorE@Base 0.30.0
 _ZN16ParamDescriptorsC1Ev@Base 0.30.0
 _ZN16ParamDescriptorsC2ERK5QListI15ParamDescriptorE@Base 0.30.0
 _ZN16ParamDescriptorsC2Ev@Base 0.30.0
 _ZN16StateValueFilterC1Ev@Base 0.30.0
 _ZN16StateValueFilterC2Ev@Base 0.30.0
 _ZN16StateValueFilterD0Ev@Base 0.30.0
 _ZN16StateValueFilterD1Ev@Base 0.30.0
 _ZN16StateValueFilterD2Ev@Base 0.30.0
 _ZN16ThingDescriptors16staticMetaObjectE@Base 0.30.0
 _ZN16ThingDescriptors3putERK8QVariant@Base 0.30.0
 _ZN16ThingPairingInfo11qt_metacallEN11QMetaObject4CallEiPPv@Base 0.30.0
 _ZN16ThingPairingInfo11qt_metacastEPKc@Base 0.30.0
 _ZN16ThingPairingInfo11setOAuthUrlERK4QUrl@Base 0.30.0
 _ZN16ThingPairingInfo16staticMetaObjectE@Base 0.30.0
 _ZN16ThingPairingInfo6finishEN5Thing10ThingErrorERK7QString@Base 0.30.0
 _ZN16ThingPairingInfo7abortedEv@Base 0.30.0
 _ZN16ThingPairingInfo8finishedEv@Base 0.30.0
 _ZN16ThingPairingInfoC1ERK20PairingTransactionIdRK12ThingClassIdRK7ThingIdRK7QStringRK9ParamListS8_P12ThingManagerj@Base 0.30.0
 _ZN16ThingPairingInfoC2ERK20PairingTransactionIdRK12ThingClassIdRK7ThingIdRK7QStringRK9ParamListS8_P12ThingManagerj@Base 0.30.0
 _ZN17BrowserActionInfo11qt_metacallEN11QMetaObject4CallEiPPv@Base 0.30.0
 _ZN17BrowserActionInfo11qt_metacastEPKc@Base 0.30.0
 _ZN17BrowserActionInfo16staticMetaObjectE@Base 0.30.0
 _ZN17BrowserActionInfo24translatedDisplayMessageERK7QLocale@Base 0.30.0
 _ZN17BrowserActionInfo6finishEN5Thing10ThingErrorERK7QString@Base 0.30.0
 _ZN17BrowserActionInfo7abortedEv@Base 0.30.0
 _ZN17BrowserActionInfo8finishedEv@Base 0.30.0
 _ZN17BrowserActionInfoC1EP5ThingP12ThingManagerRK13BrowserActionP7QObjectj@Base 0.30.0
 _ZN17BrowserActionInfoC2EP5ThingP12ThingManagerRK13BrowserActionP7QObjectj@Base 0.30.0
 _ZN17BrowserItemActionC1ERK7ThingIdRK7QStringRK12ActionTypeIdRK9ParamList@Base 0.30.0
 _ZN17BrowserItemActionC1ERKS_@Base 0.30.0
 _ZN17BrowserItemActionC2ERK7ThingIdRK7QStringRK12ActionTypeIdRK9ParamList@Base 0.30.0
 _ZN17BrowserItemActionC2ERKS_@Base 0.30.0
 _ZN17BrowserItemActionaSERKS_@Base 0.30.0
 _ZN17BrowserItemResult11qt_metacallEN11QMetaObject4CallEiPPv@Base 0.30.0
 _ZN17BrowserItemResult11qt_metacastEPKc@Base 0.30.0
 _ZN17BrowserItemResult16staticMetaObjectE@Base 0.30.0
 _ZN17BrowserItemResult24translatedDisplayMessageERK7QLocale@Base 0.30.0
 _ZN17BrowserItemResult6finishEN5Thing10ThingErrorERK7QString@Base 0.30.0
 _ZN17BrowserItemResult6finishERK11BrowserItem@Base 0.30.0
 _ZN17BrowserItemResult7abortedEv@Base 0.30.0
 _ZN17BrowserItemResult8finishedEv@Base 0.30.0
 _ZN17BrowserItemResultC1EP5ThingP12ThingManagerRK7QStringRK7QLocaleP7QObjectj@Base 0.30.0
 _ZN17BrowserItemResultC2EP5ThingP12ThingManagerRK7QStringRK7QLocaleP7QObjectj@Base 0.30.0
 _ZN17IntegrationPlugin10initPluginEP12ThingManagerP15HardwareManagerP13ApiKeyStorage@Base 0.30.0
 _ZN17IntegrationPlugin10setupThingEP14ThingSetupInfo@Base 0.30.0
 _ZN17IntegrationPlugin11browseThingEP12BrowseResult@Base 0.30.0
 _ZN17IntegrationPlugin11browserItemEP17BrowserItemResult@Base 0.30.0
 _ZN17IntegrationPlugin11qt_metacallEN11QMetaObject4CallEiPPv@Base 0.30.0
 _ZN17IntegrationPlugin11qt_metacastEPKc@Base 0.30.0
 _ZN17IntegrationPlugin11setMetaDataERK14PluginMetadata@Base 0.30.0
 _ZN17IntegrationPlugin12startPairingEP16ThingPairingInfo@Base 0.30.0
 _ZN17IntegrationPlugin12thingRemovedEP5Thing@Base 0.30.0
 _ZN17IntegrationPlugin13executeActionEP15ThingActionInfo@Base 0.30.0
 _ZN17IntegrationPlugin14confirmPairingEP16ThingPairingInfoRK7QStringS4_@Base 0.30.0
 _ZN17IntegrationPlugin14discoverThingsEP18ThingDiscoveryInfo@Base 0.30.0
 _ZN17IntegrationPlugin14postSetupThingEP5Thing@Base 0.30.0
 _ZN17IntegrationPlugin14setConfigValueERK11ParamTypeIdRK8QVariant@Base 0.30.0
 _ZN17IntegrationPlugin16setConfigurationERK9ParamList@Base 0.30.0
 _ZN17IntegrationPlugin16staticMetaObjectE@Base 0.30.0
 _ZN17IntegrationPlugin18autoThingsAppearedERK16ThingDescriptors@Base 0.30.0
 _ZN17IntegrationPlugin18configValueChangedERK11ParamTypeIdRK8QVariant@Base 0.30.0
 _ZN17IntegrationPlugin18executeBrowserItemEP17BrowserActionInfo@Base 0.30.0
 _ZN17IntegrationPlugin20autoThingDisappearedERK7ThingId@Base 0.30.0
 _ZN17IntegrationPlugin24executeBrowserItemActionEP21BrowserItemActionInfo@Base 0.30.0
 _ZN17IntegrationPlugin25startMonitoringAutoThingsEv@Base 0.30.0
 _ZN17IntegrationPlugin8metadataEv@Base 0.30.0
 _ZN17IntegrationPlugin9emitEventERK5Event@Base 0.30.0
 _ZN17IntegrationPluginC1EP7QObject@Base 0.30.0
 _ZN17IntegrationPluginC2EP7QObject@Base 0.30.0
 _ZN17IntegrationPluginD0Ev@Base 0.30.0
 _ZN17IntegrationPluginD1Ev@Base 0.30.0
 _ZN17IntegrationPluginD2Ev@Base 0.30.0
 _ZN17NetworkDeviceInfo10setAddressERK12QHostAddress@Base 0.30.0
 _ZN17NetworkDeviceInfo11setHostNameERK7QString@Base 0.30.0
 _ZN17NetworkDeviceInfo13setMacAddressERK7QString@Base 0.30.0
 _ZN17NetworkDeviceInfo19setNetworkInterfaceERK17QNetworkInterface@Base 0.30.0
 _ZN17NetworkDeviceInfo25setMacAddressManufacturerERK7QString@Base 0.30.0
 _ZN17NetworkDeviceInfoC1ERK7QString@Base 0.30.0
 _ZN17NetworkDeviceInfoC1Ev@Base 0.30.0
 _ZN17NetworkDeviceInfoC2ERK7QString@Base 0.30.0
 _ZN17NetworkDeviceInfoC2Ev@Base 0.30.0
 _ZN17QtMetaTypePrivate19IteratorOwnerCommonIN5QListI11EventTypeIdE14const_iteratorEE5equalEPKPvS8_@Base 0.30.0
 _ZN17QtMetaTypePrivate19IteratorOwnerCommonIN5QListI11EventTypeIdE14const_iteratorEE6assignEPPvPKS6_@Base 0.30.0
 _ZN17QtMetaTypePrivate19IteratorOwnerCommonIN5QListI11EventTypeIdE14const_iteratorEE7advanceEPPvi@Base 0.30.0
 _ZN17QtMetaTypePrivate19IteratorOwnerCommonIN5QListI11EventTypeIdE14const_iteratorEE7destroyEPPv@Base 0.30.0
 _ZN17QtMetaTypePrivate19IteratorOwnerCommonIN5QListI12ActionTypeIdE14const_iteratorEE5equalEPKPvS8_@Base 0.30.0
 _ZN17QtMetaTypePrivate19IteratorOwnerCommonIN5QListI12ActionTypeIdE14const_iteratorEE6assignEPPvPKS6_@Base 0.30.0
 _ZN17QtMetaTypePrivate19IteratorOwnerCommonIN5QListI12ActionTypeIdE14const_iteratorEE7advanceEPPvi@Base 0.30.0
 _ZN17QtMetaTypePrivate19IteratorOwnerCommonIN5QListI12ActionTypeIdE14const_iteratorEE7destroyEPPv@Base 0.30.0
 _ZN17QtMetaTypePrivate19IteratorOwnerCommonIN5QListI5QUuidE14const_iteratorEE5equalEPKPvS8_@Base 0.30.0
 _ZN17QtMetaTypePrivate19IteratorOwnerCommonIN5QListI5QUuidE14const_iteratorEE6assignEPPvPKS6_@Base 0.30.0
 _ZN17QtMetaTypePrivate19IteratorOwnerCommonIN5QListI5QUuidE14const_iteratorEE7advanceEPPvi@Base 0.30.0
 _ZN17QtMetaTypePrivate19IteratorOwnerCommonIN5QListI5QUuidE14const_iteratorEE7destroyEPPv@Base 0.30.0
 _ZN17QtMetaTypePrivate19IteratorOwnerCommonIN5QListI9QDateTimeE14const_iteratorEE5equalEPKPvS8_@Base 0.30.0
 _ZN17QtMetaTypePrivate19IteratorOwnerCommonIN5QListI9QDateTimeE14const_iteratorEE6assignEPPvPKS6_@Base 0.30.0
 _ZN17QtMetaTypePrivate19IteratorOwnerCommonIN5QListI9QDateTimeE14const_iteratorEE7advanceEPPvi@Base 0.30.0
 _ZN17QtMetaTypePrivate19IteratorOwnerCommonIN5QListI9QDateTimeE14const_iteratorEE7destroyEPPv@Base 0.30.0
 _ZN17QtMetaTypePrivate19IteratorOwnerCommonIN5QListIiE14const_iteratorEE5equalEPKPvS7_@Base 0.30.0
 _ZN17QtMetaTypePrivate19IteratorOwnerCommonIN5QListIiE14const_iteratorEE6assignEPPvPKS5_@Base 0.30.0
 _ZN17QtMetaTypePrivate19IteratorOwnerCommonIN5QListIiE14const_iteratorEE7advanceEPPvi@Base 0.30.0
 _ZN17QtMetaTypePrivate19IteratorOwnerCommonIN5QListIiE14const_iteratorEE7destroyEPPv@Base 0.30.0
 _ZN17QtMetaTypePrivate23QMetaTypeFunctionHelperI10ActionTypeLb1EE8DestructEPv@Base 0.30.0
 _ZN17QtMetaTypePrivate23QMetaTypeFunctionHelperI10ActionTypeLb1EE9ConstructEPvPKv@Base 0.30.0
 _ZN17QtMetaTypePrivate23QMetaTypeFunctionHelperI10EventTypesLb1EE8DestructEPv@Base 0.30.0
 _ZN17QtMetaTypePrivate23QMetaTypeFunctionHelperI10EventTypesLb1EE9ConstructEPvPKv@Base 0.30.0
 _ZN17QtMetaTypePrivate23QMetaTypeFunctionHelperI10ParamTypesLb1EE8DestructEPv@Base 0.30.0
 _ZN17QtMetaTypePrivate23QMetaTypeFunctionHelperI10ParamTypesLb1EE9ConstructEPvPKv@Base 0.30.0
 _ZN17QtMetaTypePrivate23QMetaTypeFunctionHelperI10RepositoryLb1EE8DestructEPv@Base 0.30.0
 _ZN17QtMetaTypePrivate23QMetaTypeFunctionHelperI10RepositoryLb1EE9ConstructEPvPKv@Base 0.30.0
 _ZN17QtMetaTypePrivate23QMetaTypeFunctionHelperI10StateTypesLb1EE8DestructEPv@Base 0.30.0
 _ZN17QtMetaTypePrivate23QMetaTypeFunctionHelperI10StateTypesLb1EE9ConstructEPvPKv@Base 0.30.0
 _ZN17QtMetaTypePrivate23QMetaTypeFunctionHelperI10ThingClassLb1EE8DestructEPv@Base 0.30.0
 _ZN17QtMetaTypePrivate23QMetaTypeFunctionHelperI10ThingClassLb1EE9ConstructEPvPKv@Base 0.30.0
 _ZN17QtMetaTypePrivate23QMetaTypeFunctionHelperI11ActionTypesLb1EE8DestructEPv@Base 0.30.0
 _ZN17QtMetaTypePrivate23QMetaTypeFunctionHelperI11ActionTypesLb1EE9ConstructEPvPKv@Base 0.30.0
 _ZN17QtMetaTypePrivate23QMetaTypeFunctionHelperI11BrowserItemLb1EE8DestructEPv@Base 0.30.0
 _ZN17QtMetaTypePrivate23QMetaTypeFunctionHelperI11BrowserItemLb1EE9ConstructEPvPKv@Base 0.30.0
 _ZN17QtMetaTypePrivate23QMetaTypeFunctionHelperI11EventTypeIdLb1EE8DestructEPv@Base 0.30.0
 _ZN17QtMetaTypePrivate23QMetaTypeFunctionHelperI11EventTypeIdLb1EE9ConstructEPvPKv@Base 0.30.0
 _ZN17QtMetaTypePrivate23QMetaTypeFunctionHelperI11ParamTypeIdLb1EE8DestructEPv@Base 0.30.0
 _ZN17QtMetaTypePrivate23QMetaTypeFunctionHelperI11ParamTypeIdLb1EE9ConstructEPvPKv@Base 0.30.0
 _ZN17QtMetaTypePrivate23QMetaTypeFunctionHelperI11StateTypeIdLb1EE8DestructEPv@Base 0.30.0
 _ZN17QtMetaTypePrivate23QMetaTypeFunctionHelperI11StateTypeIdLb1EE9ConstructEPvPKv@Base 0.30.0
 _ZN17QtMetaTypePrivate23QMetaTypeFunctionHelperI12ActionTypeIdLb1EE8DestructEPv@Base 0.30.0
 _ZN17QtMetaTypePrivate23QMetaTypeFunctionHelperI12ActionTypeIdLb1EE9ConstructEPvPKv@Base 0.30.0
 _ZN17QtMetaTypePrivate23QMetaTypeFunctionHelperI12CalendarItemLb1EE8DestructEPv@Base 0.30.0
 _ZN17QtMetaTypePrivate23QMetaTypeFunctionHelperI12CalendarItemLb1EE9ConstructEPvPKv@Base 0.30.0
 _ZN17QtMetaTypePrivate23QMetaTypeFunctionHelperI12IOConnectionLb1EE8DestructEPv@Base 0.30.0
 _ZN17QtMetaTypePrivate23QMetaTypeFunctionHelperI12IOConnectionLb1EE9ConstructEPvPKv@Base 0.30.0
 _ZN17QtMetaTypePrivate23QMetaTypeFunctionHelperI12ThingClassIdLb1EE8DestructEPv@Base 0.30.0
 _ZN17QtMetaTypePrivate23QMetaTypeFunctionHelperI12ThingClassIdLb1EE9ConstructEPvPKv@Base 0.30.0
 _ZN17QtMetaTypePrivate23QMetaTypeFunctionHelperI12ThingClassesLb1EE8DestructEPv@Base 0.30.0
 _ZN17QtMetaTypePrivate23QMetaTypeFunctionHelperI12ThingClassesLb1EE9ConstructEPvPKv@Base 0.30.0
 _ZN17QtMetaTypePrivate23QMetaTypeFunctionHelperI13CalendarItemsLb1EE8DestructEPv@Base 0.30.0
 _ZN17QtMetaTypePrivate23QMetaTypeFunctionHelperI13CalendarItemsLb1EE9ConstructEPvPKv@Base 0.30.0
 _ZN17QtMetaTypePrivate23QMetaTypeFunctionHelperI13TimeEventItemLb1EE8DestructEPv@Base 0.30.0
 _ZN17QtMetaTypePrivate23QMetaTypeFunctionHelperI13TimeEventItemLb1EE9ConstructEPvPKv@Base 0.30.0
 _ZN17QtMetaTypePrivate23QMetaTypeFunctionHelperI14IOConnectionIdLb1EE8DestructEPv@Base 0.30.0
 _ZN17QtMetaTypePrivate23QMetaTypeFunctionHelperI14IOConnectionIdLb1EE9ConstructEPvPKv@Base 0.30.0
 _ZN17QtMetaTypePrivate23QMetaTypeFunctionHelperI14TimeEventItemsLb1EE8DestructEPv@Base 0.30.0
 _ZN17QtMetaTypePrivate23QMetaTypeFunctionHelperI14TimeEventItemsLb1EE9ConstructEPvPKv@Base 0.30.0
 _ZN17QtMetaTypePrivate23QMetaTypeFunctionHelperI15EventDescriptorLb1EE8DestructEPv@Base 0.30.0
 _ZN17QtMetaTypePrivate23QMetaTypeFunctionHelperI15EventDescriptorLb1EE9ConstructEPvPKv@Base 0.30.0
 _ZN17QtMetaTypePrivate23QMetaTypeFunctionHelperI15ParamDescriptorLb1EE8DestructEPv@Base 0.30.0
 _ZN17QtMetaTypePrivate23QMetaTypeFunctionHelperI15ParamDescriptorLb1EE9ConstructEPvPKv@Base 0.30.0
 _ZN17QtMetaTypePrivate23QMetaTypeFunctionHelperI15ThingDescriptorLb1EE8DestructEPv@Base 0.30.0
 _ZN17QtMetaTypePrivate23QMetaTypeFunctionHelperI15ThingDescriptorLb1EE9ConstructEPvPKv@Base 0.30.0
 _ZN17QtMetaTypePrivate23QMetaTypeFunctionHelperI16ParamDescriptorsLb1EE8DestructEPv@Base 0.30.0
 _ZN17QtMetaTypePrivate23QMetaTypeFunctionHelperI16ParamDescriptorsLb1EE9ConstructEPvPKv@Base 0.30.0
 _ZN17QtMetaTypePrivate23QMetaTypeFunctionHelperI16ThingDescriptorsLb1EE8DestructEPv@Base 0.30.0
 _ZN17QtMetaTypePrivate23QMetaTypeFunctionHelperI16ThingDescriptorsLb1EE9ConstructEPvPKv@Base 0.30.0
 _ZN17QtMetaTypePrivate23QMetaTypeFunctionHelperI17QNetworkInterfaceLb1EE8DestructEPv@Base 0.30.0
 _ZN17QtMetaTypePrivate23QMetaTypeFunctionHelperI17QNetworkInterfaceLb1EE9ConstructEPvPKv@Base 0.30.0
 _ZN17QtMetaTypePrivate23QMetaTypeFunctionHelperI17ThingDescriptorIdLb1EE8DestructEPv@Base 0.30.0
 _ZN17QtMetaTypePrivate23QMetaTypeFunctionHelperI17ThingDescriptorIdLb1EE9ConstructEPvPKv@Base 0.30.0
 _ZN17QtMetaTypePrivate23QMetaTypeFunctionHelperI20ZeroConfServiceEntryLb1EE8DestructEPv@Base 0.30.0
 _ZN17QtMetaTypePrivate23QMetaTypeFunctionHelperI20ZeroConfServiceEntryLb1EE9ConstructEPvPKv@Base 0.30.0
 _ZN17QtMetaTypePrivate23QMetaTypeFunctionHelperI5EventLb1EE8DestructEPv@Base 0.30.0
 _ZN17QtMetaTypePrivate23QMetaTypeFunctionHelperI5EventLb1EE9ConstructEPvPKv@Base 0.30.0
 _ZN17QtMetaTypePrivate23QMetaTypeFunctionHelperI5ParamLb1EE8DestructEPv@Base 0.30.0
 _ZN17QtMetaTypePrivate23QMetaTypeFunctionHelperI5ParamLb1EE9ConstructEPvPKv@Base 0.30.0
 _ZN17QtMetaTypePrivate23QMetaTypeFunctionHelperI5QListI11EventTypeIdELb1EE8DestructEPv@Base 0.30.0
 _ZN17QtMetaTypePrivate23QMetaTypeFunctionHelperI5QListI11EventTypeIdELb1EE9ConstructEPvPKv@Base 0.30.0
 _ZN17QtMetaTypePrivate23QMetaTypeFunctionHelperI5QListI12ActionTypeIdELb1EE8DestructEPv@Base 0.30.0
 _ZN17QtMetaTypePrivate23QMetaTypeFunctionHelperI5QListI12ActionTypeIdELb1EE9ConstructEPvPKv@Base 0.30.0
 _ZN17QtMetaTypePrivate23QMetaTypeFunctionHelperI5QListI5QUuidELb1EE8DestructEPv@Base 0.30.0
 _ZN17QtMetaTypePrivate23QMetaTypeFunctionHelperI5QListI5QUuidELb1EE9ConstructEPvPKv@Base 0.30.0
 _ZN17QtMetaTypePrivate23QMetaTypeFunctionHelperI5QListI9QDateTimeELb1EE8DestructEPv@Base 0.30.0
 _ZN17QtMetaTypePrivate23QMetaTypeFunctionHelperI5QListI9QDateTimeELb1EE9ConstructEPvPKv@Base 0.30.0
 _ZN17QtMetaTypePrivate23QMetaTypeFunctionHelperI5QListIiELb1EE8DestructEPv@Base 0.30.0
 _ZN17QtMetaTypePrivate23QMetaTypeFunctionHelperI5QListIiELb1EE9ConstructEPvPKv@Base 0.30.0
 _ZN17QtMetaTypePrivate23QMetaTypeFunctionHelperI5StateLb1EE8DestructEPv@Base 0.30.0
 _ZN17QtMetaTypePrivate23QMetaTypeFunctionHelperI5StateLb1EE9ConstructEPvPKv@Base 0.30.0
 _ZN17QtMetaTypePrivate23QMetaTypeFunctionHelperI6StatesLb1EE8DestructEPv@Base 0.30.0
 _ZN17QtMetaTypePrivate23QMetaTypeFunctionHelperI6StatesLb1EE9ConstructEPvPKv@Base 0.30.0
 _ZN17QtMetaTypePrivate23QMetaTypeFunctionHelperI6VendorLb1EE8DestructEPv@Base 0.30.0
 _ZN17QtMetaTypePrivate23QMetaTypeFunctionHelperI6VendorLb1EE9ConstructEPvPKv@Base 0.30.0
 _ZN17QtMetaTypePrivate23QMetaTypeFunctionHelperI7PackageLb1EE8DestructEPv@Base 0.30.0
 _ZN17QtMetaTypePrivate23QMetaTypeFunctionHelperI7PackageLb1EE9ConstructEPvPKv@Base 0.30.0
 _ZN17QtMetaTypePrivate23QMetaTypeFunctionHelperI7ThingIdLb1EE8DestructEPv@Base 0.30.0
 _ZN17QtMetaTypePrivate23QMetaTypeFunctionHelperI7ThingIdLb1EE9ConstructEPvPKv@Base 0.30.0
 _ZN17QtMetaTypePrivate23QMetaTypeFunctionHelperI8PluginIdLb1EE8DestructEPv@Base 0.30.0
 _ZN17QtMetaTypePrivate23QMetaTypeFunctionHelperI8PluginIdLb1EE9ConstructEPvPKv@Base 0.30.0
 _ZN17QtMetaTypePrivate23QMetaTypeFunctionHelperI9EventTypeLb1EE8DestructEPv@Base 0.30.0
 _ZN17QtMetaTypePrivate23QMetaTypeFunctionHelperI9EventTypeLb1EE9ConstructEPvPKv@Base 0.30.0
 _ZN17QtMetaTypePrivate23QMetaTypeFunctionHelperI9ParamListLb1EE8DestructEPv@Base 0.30.0
 _ZN17QtMetaTypePrivate23QMetaTypeFunctionHelperI9ParamListLb1EE9ConstructEPvPKv@Base 0.30.0
 _ZN17QtMetaTypePrivate23QMetaTypeFunctionHelperI9ParamTypeLb1EE8DestructEPv@Base 0.30.0
 _ZN17QtMetaTypePrivate23QMetaTypeFunctionHelperI9ParamTypeLb1EE9ConstructEPvPKv@Base 0.30.0
 _ZN17QtMetaTypePrivate23QMetaTypeFunctionHelperI9QHostInfoLb1EE8DestructEPv@Base 0.30.0
 _ZN17QtMetaTypePrivate23QMetaTypeFunctionHelperI9QHostInfoLb1EE9ConstructEPvPKv@Base 0.30.0
 _ZN17QtMetaTypePrivate23QMetaTypeFunctionHelperI9StateTypeLb1EE8DestructEPv@Base 0.30.0
 _ZN17QtMetaTypePrivate23QMetaTypeFunctionHelperI9StateTypeLb1EE9ConstructEPvPKv@Base 0.30.0
 _ZN17QtMetaTypePrivate23QMetaTypeFunctionHelperIN20QLowEnergyController15ControllerStateELb1EE8DestructEPv@Base 0.30.0
 _ZN17QtMetaTypePrivate23QMetaTypeFunctionHelperIN20QLowEnergyController15ControllerStateELb1EE9ConstructEPvPKv@Base 0.30.0
 _ZN17QtMetaTypePrivate23QMetaTypeFunctionHelperIN20QLowEnergyController5ErrorELb1EE8DestructEPv@Base 0.30.0
 _ZN17QtMetaTypePrivate23QMetaTypeFunctionHelperIN20QLowEnergyController5ErrorELb1EE9ConstructEPvPKv@Base 0.30.0
 _ZN17QtMetaTypePrivate23QMetaTypeFunctionHelperIN5Thing10ThingErrorELb1EE8DestructEPv@Base 0.30.0
 _ZN17QtMetaTypePrivate23QMetaTypeFunctionHelperIN5Thing10ThingErrorELb1EE9ConstructEPvPKv@Base 0.30.0
 _ZN17QtMetaTypePrivate23QMetaTypeFunctionHelperIN5Types13ValueOperatorELb1EE8DestructEPv@Base 0.30.0
 _ZN17QtMetaTypePrivate23QMetaTypeFunctionHelperIN5Types13ValueOperatorELb1EE9ConstructEPvPKv@Base 0.30.0
 _ZN17QtMetaTypePrivate23QMetaTypeFunctionHelperIN5Types4UnitELb1EE8DestructEPv@Base 0.30.0
 _ZN17QtMetaTypePrivate23QMetaTypeFunctionHelperIN5Types4UnitELb1EE9ConstructEPvPKv@Base 0.30.0
 _ZN17QtMetaTypePrivate23QMetaTypeFunctionHelperIN5Types9InputTypeELb1EE8DestructEPv@Base 0.30.0
 _ZN17QtMetaTypePrivate23QMetaTypeFunctionHelperIN5Types9InputTypeELb1EE9ConstructEPvPKv@Base 0.30.0
 _ZN17QtMetaTypePrivate23QMetaTypeFunctionHelperIN8QVariant4TypeELb1EE8DestructEPv@Base 0.30.0
 _ZN17QtMetaTypePrivate23QMetaTypeFunctionHelperIN8QVariant4TypeELb1EE9ConstructEPvPKv@Base 0.30.0
 _ZN17QtMetaTypePrivate23QMetaTypeFunctionHelperINS_23QSequentialIterableImplELb1EE8DestructEPv@Base 0.30.0
 _ZN17QtMetaTypePrivate23QMetaTypeFunctionHelperINS_23QSequentialIterableImplELb1EE9ConstructEPvPKv@Base 0.30.0
 _ZN17QtMetaTypePrivate23QMetaTypeFunctionHelperIP11MqttChannelLb1EE8DestructEPv@Base 0.30.0
 _ZN17QtMetaTypePrivate23QMetaTypeFunctionHelperIP11MqttChannelLb1EE9ConstructEPvPKv@Base 0.30.0
 _ZN17QtMetaTypePrivate23QMetaTypeFunctionHelperIP11PluginTimerLb1EE8DestructEPv@Base 0.30.0
 _ZN17QtMetaTypePrivate23QMetaTypeFunctionHelperIP11PluginTimerLb1EE9ConstructEPvPKv@Base 0.30.0
 _ZN17QtMetaTypePrivate23QMetaTypeFunctionHelperIP13QNetworkReplyLb1EE8DestructEPv@Base 0.30.0
 _ZN17QtMetaTypePrivate23QMetaTypeFunctionHelperIP13QNetworkReplyLb1EE9ConstructEPvPKv@Base 0.30.0
 _ZN17QtMetaTypePrivate23QMetaTypeFunctionHelperIP17IntegrationPluginLb1EE8DestructEPv@Base 0.30.0
 _ZN17QtMetaTypePrivate23QMetaTypeFunctionHelperIP17IntegrationPluginLb1EE9ConstructEPvPKv@Base 0.30.0
 _ZN17QtMetaTypePrivate23QMetaTypeFunctionHelperIP5ThingLb1EE8DestructEPv@Base 0.30.0
 _ZN17QtMetaTypePrivate23QMetaTypeFunctionHelperIP5ThingLb1EE9ConstructEPvPKv@Base 0.30.0
 _ZN17QtMetaTypePrivate23QMetaTypeFunctionHelperIP9CoapReplyLb1EE8DestructEPv@Base 0.30.0
 _ZN17QtMetaTypePrivate23QMetaTypeFunctionHelperIP9CoapReplyLb1EE9ConstructEPvPKv@Base 0.30.0
 _ZN17QtMetaTypePrivate23QSequentialIterableImpl10moveToImplI5QListI11EventTypeIdEEEvPKvPPvNS0_8PositionE@Base 0.30.0
 _ZN17QtMetaTypePrivate23QSequentialIterableImpl10moveToImplI5QListI12ActionTypeIdEEEvPKvPPvNS0_8PositionE@Base 0.30.0
 _ZN17QtMetaTypePrivate23QSequentialIterableImpl10moveToImplI5QListI5QUuidEEEvPKvPPvNS0_8PositionE@Base 0.30.0
 _ZN17QtMetaTypePrivate23QSequentialIterableImpl10moveToImplI5QListI9QDateTimeEEEvPKvPPvNS0_8PositionE@Base 0.30.0
 _ZN17QtMetaTypePrivate23QSequentialIterableImpl10moveToImplI5QListIiEEEvPKvPPvNS0_8PositionE@Base 0.30.0
 _ZN17QtMetaTypePrivate23QSequentialIterableImpl6atImplI5QListI11EventTypeIdEEEPKvS6_i@Base 0.30.0
 _ZN17QtMetaTypePrivate23QSequentialIterableImpl6atImplI5QListI12ActionTypeIdEEEPKvS6_i@Base 0.30.0
 _ZN17QtMetaTypePrivate23QSequentialIterableImpl6atImplI5QListI5QUuidEEEPKvS6_i@Base 0.30.0
 _ZN17QtMetaTypePrivate23QSequentialIterableImpl6atImplI5QListI9QDateTimeEEEPKvS6_i@Base 0.30.0
 _ZN17QtMetaTypePrivate23QSequentialIterableImpl6atImplI5QListIiEEEPKvS5_i@Base 0.30.0
 _ZN17QtMetaTypePrivate23QSequentialIterableImpl7getImplI5QListI11EventTypeIdEEENS_11VariantDataEPKPvij@Base 0.30.0
 _ZN17QtMetaTypePrivate23QSequentialIterableImpl7getImplI5QListI12ActionTypeIdEEENS_11VariantDataEPKPvij@Base 0.30.0
 _ZN17QtMetaTypePrivate23QSequentialIterableImpl7getImplI5QListI5QUuidEEENS_11VariantDataEPKPvij@Base 0.30.0
 _ZN17QtMetaTypePrivate23QSequentialIterableImpl7getImplI5QListI9QDateTimeEEENS_11VariantDataEPKPvij@Base 0.30.0
 _ZN17QtMetaTypePrivate23QSequentialIterableImpl7getImplI5QListIiEEENS_11VariantDataEPKPvij@Base 0.30.0
 _ZN17QtMetaTypePrivate23QSequentialIterableImpl8sizeImplI5QListI11EventTypeIdEEEiPKv@Base 0.30.0
 _ZN17QtMetaTypePrivate23QSequentialIterableImpl8sizeImplI5QListI12ActionTypeIdEEEiPKv@Base 0.30.0
 _ZN17QtMetaTypePrivate23QSequentialIterableImpl8sizeImplI5QListI5QUuidEEEiPKv@Base 0.30.0
 _ZN17QtMetaTypePrivate23QSequentialIterableImpl8sizeImplI5QListI9QDateTimeEEEiPKv@Base 0.30.0
 _ZN17QtMetaTypePrivate23QSequentialIterableImpl8sizeImplI5QListIiEEEiPKv@Base 0.30.0
 _ZN17QtMetaTypePrivate25ContainerCapabilitiesImplI5QListI11EventTypeIdEvE10appendImplEPKvS6_@Base 0.30.0
 _ZN17QtMetaTypePrivate25ContainerCapabilitiesImplI5QListI12ActionTypeIdEvE10appendImplEPKvS6_@Base 0.30.0
 _ZN17QtMetaTypePrivate25ContainerCapabilitiesImplI5QListI5QUuidEvE10appendImplEPKvS6_@Base 0.30.0
 _ZN17QtMetaTypePrivate25ContainerCapabilitiesImplI5QListI9QDateTimeEvE10appendImplEPKvS6_@Base 0.30.0
 _ZN17QtMetaTypePrivate25ContainerCapabilitiesImplI5QListIiEvE10appendImplEPKvS5_@Base 0.30.0
 _ZN18IntegrationPlugins16staticMetaObjectE@Base 0.30.0
 _ZN18IntegrationPlugins3putERK8QVariant@Base 0.30.0
 _ZN18IntegrationPluginsC1ERK5QListIP17IntegrationPluginE@Base 0.30.0
 _ZN18IntegrationPluginsC1Ev@Base 0.30.0
 _ZN18IntegrationPluginsC2ERK5QListIP17IntegrationPluginE@Base 0.30.0
 _ZN18IntegrationPluginsC2Ev@Base 0.30.0
 _ZN18InterfaceEventType11setOptionalEb@Base 0.30.0
 _ZN18InterfaceEventType18setLoggingOverrideEb@Base 0.30.0
 _ZN18InterfaceEventTypeC1Ev@Base 0.30.0
 _ZN18InterfaceEventTypeC2Ev@Base 0.30.0
 _ZN18InterfaceStateType11setOptionalEb@Base 0.30.0
 _ZN18InterfaceStateType18setLoggingOverrideEb@Base 0.30.0
 _ZN18InterfaceStateTypeC1Ev@Base 0.30.0
 _ZN18InterfaceStateTypeC2Ev@Base 0.30.0
 _ZN18MacAddressDatabase11qt_metacallEN11QMetaObject4CallEiPPv@Base 0.30.0
 _ZN18MacAddressDatabase11qt_metacastEPKc@Base 0.30.0
 _ZN18MacAddressDatabase12initDatabaseEv@Base 0.30.0
 _ZN18MacAddressDatabase13runNextLookupEv@Base 0.30.0
 _ZN18MacAddressDatabase16lookupMacAddressERK7QString@Base 0.30.0
 _ZN18MacAddressDatabase16onLookupFinishedEv@Base 0.30.0
 _ZN18MacAddressDatabase16staticMetaObjectE@Base 0.30.0
 _ZN18MacAddressDatabase30lookupMacAddressVendorInternalERK7QString@Base 0.30.0
 _ZN18MacAddressDatabaseC1EP7QObject@Base 0.30.0
 _ZN18MacAddressDatabaseC1ERK7QStringP7QObject@Base 0.30.0
 _ZN18MacAddressDatabaseC2EP7QObject@Base 0.30.0
 _ZN18MacAddressDatabaseC2ERK7QStringP7QObject@Base 0.30.0
 _ZN18MacAddressDatabaseD0Ev@Base 0.30.0
 _ZN18MacAddressDatabaseD1Ev@Base 0.30.0
 _ZN18MacAddressDatabaseD2Ev@Base 0.30.0
 _ZN18NetworkDeviceInfos13hasMacAddressERK7QString@Base 0.30.0
 _ZN18NetworkDeviceInfos14hasHostAddressERK12QHostAddress@Base 0.30.0
 _ZN18NetworkDeviceInfos18sortNetworkDevicesEv@Base 0.30.0
 _ZN18NetworkDeviceInfos19indexFromMacAddressERK7QString@Base 0.30.0
 _ZN18NetworkDeviceInfos20indexFromHostAddressERK12QHostAddress@Base 0.30.0
 _ZN18NetworkDeviceInfos3getERK12QHostAddress@Base 0.30.0
 _ZN18NetworkDeviceInfos3getERK7QString@Base 0.30.0
 _ZN18NetworkDeviceInfosC1ERK7QVectorI17NetworkDeviceInfoE@Base 0.30.0
 _ZN18NetworkDeviceInfosC1Ev@Base 0.30.0
 _ZN18NetworkDeviceInfosC2ERK7QVectorI17NetworkDeviceInfoE@Base 0.30.0
 _ZN18NetworkDeviceInfosC2Ev@Base 0.30.0
 _ZN18NetworkDeviceInfoslsERK17NetworkDeviceInfo@Base 0.30.0
 _ZN18PluginTimerManager11qt_metacallEN11QMetaObject4CallEiPPv@Base 0.30.0
 _ZN18PluginTimerManager11qt_metacastEPKc@Base 0.30.0
 _ZN18PluginTimerManager16staticMetaObjectE@Base 0.30.0
 _ZN18PluginTimerManagerC1EP7QObject@Base 0.30.0
 _ZN18PluginTimerManagerC2EP7QObject@Base 0.30.0
 _ZN18ThingDiscoveryInfo11qt_metacallEN11QMetaObject4CallEiPPv@Base 0.30.0
 _ZN18ThingDiscoveryInfo11qt_metacastEPKc@Base 0.30.0
 _ZN18ThingDiscoveryInfo16staticMetaObjectE@Base 0.30.0
 _ZN18ThingDiscoveryInfo18addThingDescriptorERK15ThingDescriptor@Base 0.30.0
 _ZN18ThingDiscoveryInfo19addThingDescriptorsERK16ThingDescriptors@Base 0.30.0
 _ZN18ThingDiscoveryInfo24translatedDisplayMessageERK7QLocale@Base 0.30.0
 _ZN18ThingDiscoveryInfo6finishEN5Thing10ThingErrorERK7QString@Base 0.30.0
 _ZN18ThingDiscoveryInfo7abortedEv@Base 0.30.0
 _ZN18ThingDiscoveryInfo8finishedEv@Base 0.30.0
 _ZN18ThingDiscoveryInfoC1ERK12ThingClassIdRK9ParamListP12ThingManagerj@Base 0.30.0
 _ZN18ThingDiscoveryInfoC2ERK12ThingClassIdRK9ParamListP12ThingManagerj@Base 0.30.0
 _ZN18UpnpDiscoveryReply11qt_metacallEN11QMetaObject4CallEiPPv@Base 0.30.0
 _ZN18UpnpDiscoveryReply11qt_metacastEPKc@Base 0.30.0
 _ZN18UpnpDiscoveryReply13errorOccurredERKNS_23UpnpDiscoveryReplyErrorE@Base 0.30.0
 _ZN18UpnpDiscoveryReply16staticMetaObjectE@Base 0.30.0
 _ZN18UpnpDiscoveryReply8finishedEv@Base 0.30.0
 _ZN18UpnpDiscoveryReplyC1EP7QObject@Base 0.30.0
 _ZN18UpnpDiscoveryReplyC2EP7QObject@Base 0.30.0
 _ZN19CoapObserveResourceC1ERK4QUrlRK10QByteArray@Base 0.30.0
 _ZN19CoapObserveResourceC1Ev@Base 0.30.0
 _ZN19CoapObserveResourceC2ERK4QUrlRK10QByteArray@Base 0.30.0
 _ZN19CoapObserveResourceC2Ev@Base 0.30.0
 _ZN19InterfaceActionType11setOptionalEb@Base 0.30.0
 _ZN19InterfaceActionTypeC1Ev@Base 0.30.0
 _ZN19InterfaceActionTypeC2Ev@Base 0.30.0
 _ZN19InterfaceEventTypes10findByNameERK7QString@Base 0.30.0
 _ZN19InterfaceEventTypesC1ERK5QListI18InterfaceEventTypeE@Base 0.30.0
 _ZN19InterfaceEventTypesC2ERK5QListI18InterfaceEventTypeE@Base 0.30.0
 _ZN19InterfaceStateTypes10findByNameERK7QString@Base 0.30.0
 _ZN19InterfaceStateTypesC1ERK5QListI18InterfaceStateTypeE@Base 0.30.0
 _ZN19InterfaceStateTypesC2ERK5QListI18InterfaceStateTypeE@Base 0.30.0
 _ZN20InterfaceActionTypes10findByNameERK7QString@Base 0.30.0
 _ZN20InterfaceActionTypesC1ERK5QListI19InterfaceActionTypeE@Base 0.30.0
 _ZN20InterfaceActionTypesC2ERK5QListI19InterfaceActionTypeE@Base 0.30.0
 _ZN20NetworkAccessManager11qt_metacallEN11QMetaObject4CallEiPPv@Base 0.30.0
 _ZN20NetworkAccessManager11qt_metacastEPKc@Base 0.30.0
 _ZN20NetworkAccessManager16staticMetaObjectE@Base 0.30.0
 _ZN20NetworkAccessManagerC1EP7QObject@Base 0.30.0
 _ZN20NetworkAccessManagerC2EP7QObject@Base 0.30.0
 _ZN20UpnpDeviceDescriptor11setLocationERK4QUrl@Base 0.30.0
 _ZN20UpnpDeviceDescriptor11setModelURLERK4QUrl@Base 0.30.0
 _ZN20UpnpDeviceDescriptor12setModelNameERK7QString@Base 0.30.0
 _ZN20UpnpDeviceDescriptor13setDeviceTypeERK7QString@Base 0.30.0
 _ZN20UpnpDeviceDescriptor14setHostAddressERK12QHostAddress@Base 0.30.0
 _ZN20UpnpDeviceDescriptor14setModelNumberERK7QString@Base 0.30.0
 _ZN20UpnpDeviceDescriptor15setFriendlyNameERK7QString@Base 0.30.0
 _ZN20UpnpDeviceDescriptor15setManufacturerERK7QString@Base 0.30.0
 _ZN20UpnpDeviceDescriptor15setSerialNumberERK7QString@Base 0.30.0
 _ZN20UpnpDeviceDescriptor18setManufacturerURLERK4QUrl@Base 0.30.0
 _ZN20UpnpDeviceDescriptor19setModelDescriptionERK7QString@Base 0.30.0
 _ZN20UpnpDeviceDescriptor6setUpcERK7QString@Base 0.30.0
 _ZN20UpnpDeviceDescriptor7setPortERKi@Base 0.30.0
 _ZN20UpnpDeviceDescriptor7setUuidERK7QString@Base 0.30.0
 _ZN20UpnpDeviceDescriptorC1Ev@Base 0.30.0
 _ZN20UpnpDeviceDescriptorC2Ev@Base 0.30.0
 _ZN20ZeroConfServiceEntryC1E7QStringS0_12QHostAddressS0_S0_tN15QAbstractSocket20NetworkLayerProtocolE11QStringListbbbbb@Base 0.30.0
 _ZN20ZeroConfServiceEntryC1Ev@Base 0.30.0
 _ZN20ZeroConfServiceEntryC2E7QStringS0_12QHostAddressS0_S0_tN15QAbstractSocket20NetworkLayerProtocolE11QStringListbbbbb@Base 0.30.0
 _ZN20ZeroConfServiceEntryC2Ev@Base 0.30.0
 _ZN21BrowserItemActionInfo11qt_metacallEN11QMetaObject4CallEiPPv@Base 0.30.0
 _ZN21BrowserItemActionInfo11qt_metacastEPKc@Base 0.30.0
 _ZN21BrowserItemActionInfo16staticMetaObjectE@Base 0.30.0
 _ZN21BrowserItemActionInfo24translatedDisplayMessageERK7QLocale@Base 0.30.0
 _ZN21BrowserItemActionInfo6finishEN5Thing10ThingErrorERK7QString@Base 0.30.0
 _ZN21BrowserItemActionInfo7abortedEv@Base 0.30.0
 _ZN21BrowserItemActionInfo8finishedEv@Base 0.30.0
 _ZN21BrowserItemActionInfoC1EP5ThingP12ThingManagerRK17BrowserItemActionP7QObjectj@Base 0.30.0
 _ZN21BrowserItemActionInfoC2EP5ThingP12ThingManagerRK17BrowserItemActionP7QObjectj@Base 0.30.0
 _ZN22NetworkDeviceDiscovery11qt_metacallEN11QMetaObject4CallEiPPv@Base 0.30.0
 _ZN22NetworkDeviceDiscovery11qt_metacastEPKc@Base 0.30.0
 _ZN22NetworkDeviceDiscovery14runningChangedEb@Base 0.30.0
 _ZN22NetworkDeviceDiscovery15finishDiscoveryEv@Base 0.30.0
 _ZN22NetworkDeviceDiscovery16lookupMacAddressERK7QString@Base 0.30.0
 _ZN22NetworkDeviceDiscovery16staticMetaObjectE@Base 0.30.0
 _ZN22NetworkDeviceDiscovery20onArpResponseRceivedERK17QNetworkInterfaceRK12QHostAddressRK7QString@Base 0.30.0
 _ZN22NetworkDeviceDiscovery21pingAllNetworkDevicesEv@Base 0.30.0
 _ZN22NetworkDeviceDiscovery27updateOrAddNetworkDeviceArpERK17QNetworkInterfaceRK12QHostAddressRK7QStringS8_@Base 0.30.0
 _ZN22NetworkDeviceDiscovery4pingERK12QHostAddress@Base 0.30.0
 _ZN22NetworkDeviceDiscovery8discoverEv@Base 0.30.0
 _ZN22NetworkDeviceDiscoveryC1EP7QObject@Base 0.30.0
 _ZN22NetworkDeviceDiscoveryC2EP7QObject@Base 0.30.0
 _ZN22ZeroConfServiceBrowser11qt_metacallEN11QMetaObject4CallEiPPv@Base 0.30.0
 _ZN22ZeroConfServiceBrowser11qt_metacastEPKc@Base 0.30.0
 _ZN22ZeroConfServiceBrowser16staticMetaObjectE@Base 0.30.0
 _ZN22ZeroConfServiceBrowser17serviceEntryAddedERK20ZeroConfServiceEntry@Base 0.30.0
 _ZN22ZeroConfServiceBrowser19serviceEntryRemovedERK20ZeroConfServiceEntry@Base 0.30.0
 _ZN22ZeroConfServiceBrowserC1ERK7QStringP7QObject@Base 0.30.0
 _ZN22ZeroConfServiceBrowserC2ERK7QStringP7QObject@Base 0.30.0
 _ZN22ZigbeeHardwareResource11qt_metacallEN11QMetaObject4CallEiPPv@Base 0.30.0
 _ZN22ZigbeeHardwareResource11qt_metacastEPKc@Base 0.30.0
 _ZN22ZigbeeHardwareResource16staticMetaObjectE@Base 0.30.0
 _ZN22ZigbeeHardwareResource19networkStateChangedERK5QUuidN13ZigbeeNetwork5StateE@Base 0.30.0
 _ZN22ZigbeeHardwareResourceC1EP7QObject@Base 0.30.0
 _ZN22ZigbeeHardwareResourceC2EP7QObject@Base 0.30.0
 _ZN23BluetoothDiscoveryReply11qt_metacallEN11QMetaObject4CallEiPPv@Base 0.30.0
 _ZN23BluetoothDiscoveryReply11qt_metacastEPKc@Base 0.30.0
 _ZN23BluetoothDiscoveryReply13errorOccurredERKNS_28BluetoothDiscoveryReplyErrorE@Base 0.30.0
 _ZN23BluetoothDiscoveryReply16staticMetaObjectE@Base 0.30.0
 _ZN23BluetoothDiscoveryReply8finishedEv@Base 0.30.0
 _ZN23BluetoothDiscoveryReplyC1EP7QObject@Base 0.30.0
 _ZN23BluetoothDiscoveryReplyC2EP7QObject@Base 0.30.0
 _ZN23MacAddressDatabaseReply11qt_metacallEN11QMetaObject4CallEiPPv@Base 0.30.0
 _ZN23MacAddressDatabaseReply11qt_metacastEPKc@Base 0.30.0
 _ZN23MacAddressDatabaseReply16staticMetaObjectE@Base 0.30.0
 _ZN23MacAddressDatabaseReply8finishedEv@Base 0.30.0
 _ZN24BluetoothLowEnergyDevice11qt_metacallEN11QMetaObject4CallEiPPv@Base 0.30.0
 _ZN24BluetoothLowEnergyDevice11qt_metacastEPKc@Base 0.30.0
 _ZN24BluetoothLowEnergyDevice12stateChangedERKN20QLowEnergyController15ControllerStateE@Base 0.30.0
 _ZN24BluetoothLowEnergyDevice13errorOccurredERKN20QLowEnergyController5ErrorE@Base 0.30.0
 _ZN24BluetoothLowEnergyDevice16connectedChangedERKb@Base 0.30.0
 _ZN24BluetoothLowEnergyDevice16staticMetaObjectE@Base 0.30.0
 _ZN24BluetoothLowEnergyDevice21autoConnectingChangedERKb@Base 0.30.0
 _ZN24BluetoothLowEnergyDevice25servicesDiscoveryFinishedEv@Base 0.30.0
 _ZN24BluetoothLowEnergyDeviceC1EP7QObject@Base 0.30.0
 _ZN24BluetoothLowEnergyDeviceC2EP7QObject@Base 0.30.0
 _ZN24PlatformSystemController11qt_metacallEN11QMetaObject4CallEiPPv@Base 0.30.0
 _ZN24PlatformSystemController11qt_metacastEPKc@Base 0.30.0
 _ZN24PlatformSystemController11setTimeZoneERK9QTimeZone@Base 0.30.0
 _ZN24PlatformSystemController16availableChangedEv@Base 0.30.0
 _ZN24PlatformSystemController16setAutomaticTimeEb@Base 0.30.0
 _ZN24PlatformSystemController16staticMetaObjectE@Base 0.30.0
 _ZN24PlatformSystemController24timeConfigurationChangedEv@Base 0.30.0
 _ZN24PlatformSystemController34timeZoneManagementAvailableChangedEv@Base 0.30.0
 _ZN24PlatformSystemController6rebootEv@Base 0.30.0
 _ZN24PlatformSystemController7restartEv@Base 0.30.0
 _ZN24PlatformSystemController7setTimeERK9QDateTime@Base 0.30.0
 _ZN24PlatformSystemController8shutdownEv@Base 0.30.0
 _ZN24PlatformSystemControllerC1EP7QObject@Base 0.30.0
 _ZN24PlatformSystemControllerC2EP7QObject@Base 0.30.0
 _ZN24PlatformUpdateController11busyChangedEv@Base 0.30.0
 _ZN24PlatformUpdateController11qt_metacallEN11QMetaObject4CallEiPPv@Base 0.30.0
 _ZN24PlatformUpdateController11qt_metacastEPKc@Base 0.30.0
 _ZN24PlatformUpdateController11startUpdateERK11QStringList@Base 0.30.0
 _ZN24PlatformUpdateController12packageAddedERK7Package@Base 0.30.0
 _ZN24PlatformUpdateController14packageChangedERK7Package@Base 0.30.0
 _ZN24PlatformUpdateController14packageRemovedERK7QString@Base 0.30.0
 _ZN24PlatformUpdateController14removePackagesERK11QStringList@Base 0.30.0
 _ZN24PlatformUpdateController15checkForUpdatesEv@Base 0.30.0
 _ZN24PlatformUpdateController15repositoryAddedERK10Repository@Base 0.30.0
 _ZN24PlatformUpdateController16availableChangedEv@Base 0.30.0
 _ZN24PlatformUpdateController16enableRepositoryERK7QStringb@Base 0.30.0
 _ZN24PlatformUpdateController16staticMetaObjectE@Base 0.30.0
 _ZN24PlatformUpdateController17repositoryChangedERK10Repository@Base 0.30.0
 _ZN24PlatformUpdateController17repositoryRemovedERK7QString@Base 0.30.0
 _ZN24PlatformUpdateController20updateRunningChangedEv@Base 0.30.0
 _ZN24PlatformUpdateController8rollbackERK11QStringList@Base 0.30.0
 _ZN24PlatformUpdateControllerC1EP7QObject@Base 0.30.0
 _ZN24PlatformUpdateControllerC2EP7QObject@Base 0.30.0
 _ZN24StateValueFilterAdaptive6updateEv@Base 0.30.0
 _ZN24StateValueFilterAdaptive8addValueERK8QVariant@Base 0.30.0
 _ZN24StateValueFilterAdaptiveC1Ev@Base 0.30.0
 _ZN24StateValueFilterAdaptiveC2Ev@Base 0.30.0
 _ZN24ZeroConfServicePublisher11qt_metacallEN11QMetaObject4CallEiPPv@Base 0.30.0
 _ZN24ZeroConfServicePublisher11qt_metacastEPKc@Base 0.30.0
 _ZN24ZeroConfServicePublisher15registerServiceERK7QStringRK12QHostAddressRKtS2_RK5QHashIS0_S0_E@Base 0.30.0
 _ZN24ZeroConfServicePublisher16staticMetaObjectE@Base 0.30.0
 _ZN24ZeroConfServicePublisher17unregisterServiceERK7QString@Base 0.30.0
 _ZN24ZeroConfServicePublisherC1EP7QObject@Base 0.30.0
 _ZN24ZeroConfServicePublisherC2EP7QObject@Base 0.30.0
 _ZN25BluetoothLowEnergyManager11qt_metacallEN11QMetaObject4CallEiPPv@Base 0.30.0
 _ZN25BluetoothLowEnergyManager11qt_metacastEPKc@Base 0.30.0
 _ZN25BluetoothLowEnergyManager15EnableBluetoothEb@Base 0.30.0
 _ZN25BluetoothLowEnergyManager16staticMetaObjectE@Base 0.30.0
 _ZN25BluetoothLowEnergyManagerC1EP7QObject@Base 0.30.0
 _ZN25BluetoothLowEnergyManagerC2EP7QObject@Base 0.30.0
 _ZN25ModbusRtuHardwareResource11qt_metacallEN11QMetaObject4CallEiPPv@Base 0.30.0
 _ZN25ModbusRtuHardwareResource11qt_metacastEPKc@Base 0.30.0
 _ZN25ModbusRtuHardwareResource16staticMetaObjectE@Base 0.30.0
 _ZN25ModbusRtuHardwareResource20modbusRtuMasterAddedERK5QUuid@Base 0.30.0
 _ZN25ModbusRtuHardwareResource22modbusRtuMasterChangedERK5QUuid@Base 0.30.0
 _ZN25ModbusRtuHardwareResource22modbusRtuMasterRemovedERK5QUuid@Base 0.30.0
 _ZN25ModbusRtuHardwareResourceC1EP7QObject@Base 0.30.0
 _ZN25ModbusRtuHardwareResourceC2EP7QObject@Base 0.30.0
 _ZN26PlatformZeroConfController10setEnabledEb@Base 0.30.0
 _ZN26PlatformZeroConfController11qt_metacallEN11QMetaObject4CallEiPPv@Base 0.30.0
 _ZN26PlatformZeroConfController11qt_metacastEPKc@Base 0.30.0
 _ZN26PlatformZeroConfController16staticMetaObjectE@Base 0.30.0
 _ZN26PlatformZeroConfController20createServiceBrowserERK7QString@Base 0.30.0
 _ZN26PlatformZeroConfControllerC1EP7QObject@Base 0.30.0
 _ZN26PlatformZeroConfControllerC2EP7QObject@Base 0.30.0
 _ZN27NetworkDeviceDiscoveryReply11qt_metacallEN11QMetaObject4CallEiPPv@Base 0.30.0
 _ZN27NetworkDeviceDiscoveryReply11qt_metacastEPKc@Base 0.30.0
 _ZN27NetworkDeviceDiscoveryReply16staticMetaObjectE@Base 0.30.0
 _ZN27NetworkDeviceDiscoveryReply18networkDeviceInfosEv@Base 0.30.0
 _ZN27NetworkDeviceDiscoveryReply8finishedEv@Base 0.30.0
 _ZN27NetworkDeviceDiscoveryReplyC1EP7QObject@Base 0.30.0
 _ZN27NetworkDeviceDiscoveryReplyC2EP7QObject@Base 0.30.0
 _ZN3Pwm10chipNumberEv@Base 0.30.0
 _ZN3Pwm10percentageEv@Base 0.30.0
 _ZN3Pwm11isAvailableEv@Base 0.30.0
 _ZN3Pwm11qt_metacallEN11QMetaObject4CallEiPPv@Base 0.30.0
 _ZN3Pwm11qt_metacastEPKc@Base 0.30.0
 _ZN3Pwm11setPolarityENS_8PolarityE@Base 0.30.0
 _ZN3Pwm11unexportPwmEv@Base 0.30.0
 _ZN3Pwm12setDutyCycleEl@Base 0.30.0
 _ZN3Pwm12setFrequencyEd@Base 0.30.0
 _ZN3Pwm13setPercentageEi@Base 0.30.0
 _ZN3Pwm16staticMetaObjectE@Base 0.30.0
 _ZN3Pwm6enableEv@Base 0.30.0
 _ZN3Pwm6periodEv@Base 0.30.0
 _ZN3Pwm7disableEv@Base 0.30.0
 _ZN3Pwm8polarityEv@Base 0.30.0
 _ZN3Pwm9dutyCycleEv@Base 0.30.0
 _ZN3Pwm9exportPwmEv@Base 0.30.0
 _ZN3Pwm9frequencyEv@Base 0.30.0
 _ZN3Pwm9isEnabledEv@Base 0.30.0
 _ZN3Pwm9setPeriodEl@Base 0.30.0
 _ZN3PwmC1EiP7QObject@Base 0.30.0
 _ZN3PwmC2EiP7QObject@Base 0.30.0
 _ZN3PwmD0Ev@Base 0.30.0
 _ZN3PwmD1Ev@Base 0.30.0
 _ZN3PwmD2Ev@Base 0.30.0
 _ZN4Coap10lookupHostEv@Base 0.30.0
 _ZN4Coap11onReadyReadEv@Base 0.30.0
 _ZN4Coap11qt_metacallEN11QMetaObject4CallEiPPv@Base 0.30.0
 _ZN4Coap11qt_metacastEPKc@Base 0.30.0
 _ZN4Coap11sendCoapPduERK12QHostAddressRKtRK7CoapPdu@Base 0.30.0
 _ZN4Coap11sendRequestEP9CoapReplyRKb@Base 0.30.0
 _ZN4Coap13replyFinishedEP9CoapReply@Base 0.30.0
 _ZN4Coap14deleteResourceERK11CoapRequest@Base 0.30.0
 _ZN4Coap14onReplyTimeoutEv@Base 0.30.0
 _ZN4Coap15onReplyFinishedEv@Base 0.30.0
 _ZN4Coap15processResponseERK7CoapPduRK12QHostAddressRKt@Base 0.30.0
 _ZN4Coap16staticMetaObjectE@Base 0.30.0
 _ZN4Coap18hostLookupFinishedERK9QHostInfo@Base 0.30.0
 _ZN4Coap19processNotificationERK7CoapPduRK12QHostAddressRKt@Base 0.30.0
 _ZN4Coap20disableNotificationsERK11CoapRequest@Base 0.30.0
 _ZN4Coap20notificationReceivedERK19CoapObserveResourceRKiRK10QByteArray@Base 0.30.0
 _ZN4Coap21processBlock1ResponseEP9CoapReplyRK7CoapPdu@Base 0.30.0
 _ZN4Coap21processBlock2ResponseEP9CoapReplyRK7CoapPdu@Base 0.30.0
 _ZN4Coap22processIdBasedResponseEP9CoapReplyRK7CoapPdu@Base 0.30.0
 _ZN4Coap25processBlock2NotificationEP9CoapReplyRK7CoapPdu@Base 0.30.0
 _ZN4Coap25processTokenBasedResponseEP9CoapReplyRK7CoapPdu@Base 0.30.0
 _ZN4Coap27enableResourceNotificationsERK11CoapRequest@Base 0.30.0
 _ZN4Coap3getERK11CoapRequest@Base 0.30.0
 _ZN4Coap3putERK11CoapRequestRK10QByteArray@Base 0.30.0
 _ZN4Coap4pingERK11CoapRequest@Base 0.30.0
 _ZN4Coap4postERK11CoapRequestRK10QByteArray@Base 0.30.0
 _ZN4Coap8sendDataERK12QHostAddressRKtRK10QByteArray@Base 0.30.0
 _ZN4CoapC1EP7QObjectRKt@Base 0.30.0
 _ZN4CoapC2EP7QObjectRKt@Base 0.30.0
 _ZN4Ping10setPayloadERK10QByteArray@Base 0.30.0
 _ZN4Ping11finishReplyEP9PingReplyNS0_5ErrorE@Base 0.30.0
 _ZN4Ping11performPingEP9PingReply@Base 0.30.0
 _ZN4Ping11qt_metacallEN11QMetaObject4CallEiPPv@Base 0.30.0
 _ZN4Ping11qt_metacastEPKc@Base 0.30.0
 _ZN4Ping11verifyErrnoEi@Base 0.30.0
 _ZN4Ping13cleanUpSocketEv@Base 0.30.0
 _ZN4Ping13sendNextReplyEv@Base 0.30.0
 _ZN4Ping16availableChangedEb@Base 0.30.0
 _ZN4Ping16staticMetaObjectE@Base 0.30.0
 _ZN4Ping17calculateChecksumEPti@Base 0.30.0
 _ZN4Ping17onSocketReadyReadEi@Base 0.30.0
 _ZN4Ping17timeValueSubtractEP7timevalS1_@Base 0.30.0
 _ZN4Ping18calculateRequestIdEv@Base 0.30.0
 _ZN4Ping20onHostLookupFinishedERK9QHostInfo@Base 0.30.0
 _ZN4Ping4pingERK12QHostAddress@Base 0.30.0
 _ZN4PingC1EP7QObject@Base 0.30.0
 _ZN4PingC2EP7QObject@Base 0.30.0
 _ZN5Event10setThingIdERK7ThingId@Base 0.30.0
 _ZN5Event14setEventTypeIdERK11EventTypeId@Base 0.30.0
 _ZN5Event16staticMetaObjectE@Base 0.30.0
 _ZN5Event9setLoggedEb@Base 0.30.0
 _ZN5Event9setParamsERK9ParamList@Base 0.30.0
 _ZN5EventC1ERK11EventTypeIdRK7ThingIdRK9ParamListb@Base 0.30.0
 _ZN5EventC1Ev@Base 0.30.0
 _ZN5EventC2ERK11EventTypeIdRK7ThingIdRK9ParamListb@Base 0.30.0
 _ZN5EventC2Ev@Base 0.30.0
 _ZN5Param14setParamTypeIdERK11ParamTypeId@Base 0.30.0
 _ZN5Param16staticMetaObjectE@Base 0.30.0
 _ZN5Param8setValueERK8QVariant@Base 0.30.0
 _ZN5ParamC1ERK11ParamTypeIdRK8QVariant@Base 0.30.0
 _ZN5ParamC2ERK11ParamTypeIdRK8QVariant@Base 0.30.0
 _ZN5QHashI10QByteArray19CoapObserveResourceE11deleteNode2EPN9QHashData4NodeE@Base 0.30.0
 _ZN5QHashI10QByteArray19CoapObserveResourceE13duplicateNodeEPN9QHashData4NodeEPv@Base 0.30.0
 _ZN5QHashI11StateTypeIdP16StateValueFilterE11deleteNode2EPN9QHashData4NodeE@Base 0.30.0
 _ZN5QHashI11StateTypeIdP16StateValueFilterE13duplicateNodeEPN9QHashData4NodeEPv@Base 0.30.0
 _ZN5QHashI7QString10QByteArrayE11deleteNode2EPN9QHashData4NodeE@Base 0.30.0
 _ZN5QHashI7QString10QByteArrayE13duplicateNodeEPN9QHashData4NodeEPv@Base 0.30.0
 _ZN5QHashI7QString11QMetaObjectE11deleteNode2EPN9QHashData4NodeE@Base 0.30.0
 _ZN5QHashI7QString11QMetaObjectE13duplicateNodeEPN9QHashData4NodeEPv@Base 0.30.0
 _ZN5QHashI7QString6ApiKeyE11deleteNode2EPN9QHashData4NodeE@Base 0.30.0
 _ZN5QHashI7QString6ApiKeyE13duplicateNodeEPN9QHashData4NodeEPv@Base 0.30.0
 _ZN5QHashI7QString8QVariantE11deleteNode2EPN9QHashData4NodeE@Base 0.30.0
 _ZN5QHashI7QString8QVariantE13duplicateNodeEPN9QHashData4NodeEPv@Base 0.30.0
 _ZN5QHashI7QString9QMetaEnumE11deleteNode2EPN9QHashData4NodeE@Base 0.30.0
 _ZN5QHashI7QString9QMetaEnumE13duplicateNodeEPN9QHashData4NodeEPv@Base 0.30.0
 _ZN5QHashI7QStringS0_E11deleteNode2EPN9QHashData4NodeE@Base 0.30.0
 _ZN5QHashI7QStringS0_E13duplicateNodeEPN9QHashData4NodeEPv@Base 0.30.0
 _ZN5QHashIP9CoapReply19CoapObserveResourceE11deleteNode2EPN9QHashData4NodeE@Base 0.30.0
 _ZN5QHashIP9CoapReply19CoapObserveResourceE13duplicateNodeEPN9QHashData4NodeEPv@Base 0.30.0
 _ZN5QHashIP9CoapReplyiE11deleteNode2EPN9QHashData4NodeE@Base 0.30.0
 _ZN5QHashIP9CoapReplyiE13duplicateNodeEPN9QHashData4NodeEPv@Base 0.30.0
 _ZN5QHashIiP9CoapReplyE11deleteNode2EPN9QHashData4NodeE@Base 0.30.0
 _ZN5QHashIiP9CoapReplyE13duplicateNodeEPN9QHashData4NodeEPv@Base 0.30.0
 _ZN5QHashIiP9PingReplyE11deleteNode2EPN9QHashData4NodeE@Base 0.30.0
 _ZN5QHashIiP9PingReplyE13duplicateNodeEPN9QHashData4NodeEPv@Base 0.30.0
 _ZN5QHashItP9PingReplyE11deleteNode2EPN9QHashData4NodeE@Base 0.30.0
 _ZN5QHashItP9PingReplyE13duplicateNodeEPN9QHashData4NodeEPv@Base 0.30.0
 _ZN5State11setMaxValueERK8QVariant@Base 0.30.0
 _ZN5State11setMinValueERK8QVariant@Base 0.30.0
 _ZN5State16staticMetaObjectE@Base 0.30.0
 _ZN5State8setValueERK8QVariant@Base 0.30.0
 _ZN5State9setFilterEN5Types16StateValueFilterE@Base 0.30.0
 _ZN5StateC1ERK11StateTypeIdRK7ThingId@Base 0.30.0
 _ZN5StateC1Ev@Base 0.30.0
 _ZN5StateC2ERK11StateTypeIdRK7ThingId@Base 0.30.0
 _ZN5StateC2Ev@Base 0.30.0
 _ZN5Thing11nameChangedEv@Base 0.30.0
 _ZN5Thing11qt_metacallEN11QMetaObject4CallEiPPv@Base 0.30.0
 _ZN5Thing11qt_metacastEPKc@Base 0.30.0
 _ZN5Thing11setParentIdERK7ThingId@Base 0.30.0
 _ZN5Thing11setSettingsERK9ParamList@Base 0.30.0
 _ZN5Thing13setParamValueERK11ParamTypeIdRK8QVariant@Base 0.30.0
 _ZN5Thing13setParamValueERK7QStringRK8QVariant@Base 0.30.0
 _ZN5Thing13setStateValueERK11StateTypeIdRK8QVariant@Base 0.30.0
 _ZN5Thing13setStateValueERK7QStringRK8QVariant@Base 0.30.0
 _ZN5Thing14eventTriggeredERK5Event@Base 0.30.0
 _ZN5Thing14setSetupStatusENS_16ThingSetupStatusENS_10ThingErrorERK7QString@Base 0.30.0
 _ZN5Thing14settingChangedERK11ParamTypeIdRK8QVariant@Base 0.30.0
 _ZN5Thing15setSettingValueERK11ParamTypeIdRK8QVariant@Base 0.30.0
 _ZN5Thing15setSettingValueERK7QStringRK8QVariant@Base 0.30.0
 _ZN5Thing16setStateMaxValueERK11StateTypeIdRK8QVariant@Base 0.30.0
 _ZN5Thing16setStateMaxValueERK7QStringRK8QVariant@Base 0.30.0
 _ZN5Thing16setStateMinValueERK11StateTypeIdRK8QVariant@Base 0.30.0
 _ZN5Thing16setStateMinValueERK7QStringRK8QVariant@Base 0.30.0
 _ZN5Thing16staticMetaObjectE@Base 0.30.0
 _ZN5Thing17stateValueChangedERK11StateTypeIdRK8QVariantS5_S5_@Base 0.30.0
 _ZN5Thing18setupStatusChangedEv@Base 0.30.0
 _ZN5Thing19setStateValueFilterERK11StateTypeIdN5Types16StateValueFilterE@Base 0.30.0
 _ZN5Thing20setStateMinMaxValuesERK11StateTypeIdRK8QVariantS5_@Base 0.30.0
 _ZN5Thing20setStateMinMaxValuesERK7QStringRK8QVariantS5_@Base 0.30.0
 _ZN5Thing21setLoggedEventTypeIdsE5QListI11EventTypeIdE@Base 0.30.0
 _ZN5Thing7setNameERK7QString@Base 0.30.0
 _ZN5Thing9emitEventERK11EventTypeIdRK9ParamList@Base 0.30.0
 _ZN5Thing9emitEventERK7QStringRK9ParamList@Base 0.30.0
 _ZN5Thing9setParamsERK9ParamList@Base 0.30.0
 _ZN5Thing9setStatesERK6States@Base 0.30.0
 _ZN5ThingC1ERK8PluginIdRK10ThingClassP7QObject@Base 0.30.0
 _ZN5ThingC1ERK8PluginIdRK10ThingClassRK7ThingIdP7QObject@Base 0.30.0
 _ZN5ThingC2ERK8PluginIdRK10ThingClassP7QObject@Base 0.30.0
 _ZN5ThingC2ERK8PluginIdRK10ThingClassRK7ThingIdP7QObject@Base 0.30.0
 _ZN5ThingD0Ev@Base 0.30.0
 _ZN5ThingD1Ev@Base 0.30.0
 _ZN5ThingD2Ev@Base 0.30.0
 _ZN5Types16staticMetaObjectE@Base 0.30.0
 _ZN6Action10setThingIdERK7ThingId@Base 0.30.0
 _ZN6Action15setActionTypeIdERK12ActionTypeId@Base 0.30.0
 _ZN6Action16staticMetaObjectE@Base 0.30.0
 _ZN6Action9setParamsERK9ParamList@Base 0.30.0
 _ZN6ActionC1ERK12ActionTypeIdRK7ThingIdNS_11TriggeredByE@Base 0.30.0
 _ZN6ActionC1ERKS_@Base 0.30.0
 _ZN6ActionC2ERK12ActionTypeIdRK7ThingIdNS_11TriggeredByE@Base 0.30.0
 _ZN6ActionC2ERKS_@Base 0.30.0
 _ZN6ActionaSERKS_@Base 0.30.0
 _ZN6ApiKey6insertERK7QStringRK10QByteArray@Base 0.30.0
 _ZN6ApiKeyC1Ev@Base 0.30.0
 _ZN6ApiKeyC2Ev@Base 0.30.0
 _ZN6OAuth211qt_metacallEN11QMetaObject4CallEiPPv@Base 0.30.0
 _ZN6OAuth211qt_metacastEPKc@Base 0.30.0
 _ZN6OAuth211setClientIdERK7QString@Base 0.30.0
 _ZN6OAuth211setPasswordERK7QString@Base 0.30.0
 _ZN6OAuth211setUsernameERK7QString@Base 0.30.0
 _ZN6OAuth212tokenChangedEv@Base 0.30.0
 _ZN6OAuth213replyFinishedEP13QNetworkReply@Base 0.30.0
 _ZN6OAuth214refreshTimeoutEv@Base 0.30.0
 _ZN6OAuth215setClientSecretE7QString@Base 0.30.0
 _ZN6OAuth216setAuthenticatedERKb@Base 0.30.0
 _ZN6OAuth216staticMetaObjectE@Base 0.30.0
 _ZN6OAuth219startAuthenticationEv@Base 0.30.0
 _ZN6OAuth221authenticationChangedEv@Base 0.30.0
 _ZN6OAuth26setUrlERK4QUrl@Base 0.30.0
 _ZN6OAuth28setQueryERK9QUrlQuery@Base 0.30.0
 _ZN6OAuth28setScopeERK7QString@Base 0.30.0
 _ZN6OAuth28setTokenERK7QString@Base 0.30.0
 _ZN6OAuth2C1E7QStringS0_P7QObject@Base 0.30.0
 _ZN6OAuth2C2E7QStringS0_P7QObject@Base 0.30.0
 _ZN6States10stateValueERK11StateTypeId@Base 0.30.0
 _ZN6States16staticMetaObjectE@Base 0.30.0
 _ZN6States3putERK8QVariant@Base 0.30.0
 _ZN6StatesC1ERK5QListI5StateE@Base 0.30.0
 _ZN6StatesC1Ev@Base 0.30.0
 _ZN6StatesC2ERK5QListI5StateE@Base 0.30.0
 _ZN6StatesC2Ev@Base 0.30.0
 _ZN6Things13filterByParamERK11ParamTypeIdRK8QVariant@Base 0.30.0
 _ZN6Things16filterByParentIdERK7ThingId@Base 0.30.0
 _ZN6Things16staticMetaObjectE@Base 0.30.0
 _ZN6Things17filterByInterfaceERK7QString@Base 0.30.0
 _ZN6Things20filterByThingClassIdERK12ThingClassId@Base 0.30.0
 _ZN6Things3putERK8QVariant@Base 0.30.0
 _ZN6Things8findByIdERK7ThingId@Base 0.30.0
 _ZN6ThingsC1ERK5QListIP5ThingE@Base 0.30.0
 _ZN6ThingsC2ERK5QListIP5ThingE@Base 0.30.0
 _ZN6Vendor14setDisplayNameERK7QString@Base 0.30.0
 _ZN6Vendor16staticMetaObjectE@Base 0.30.0
 _ZN6Vendor5setIdERK8VendorId@Base 0.30.0
 _ZN6Vendor7setNameERK7QString@Base 0.30.0
 _ZN6VendorC1ERK8VendorIdRK7QString@Base 0.30.0
 _ZN6VendorC1Ev@Base 0.30.0
 _ZN6VendorC2ERK8VendorIdRK7QString@Base 0.30.0
 _ZN6VendorC2Ev@Base 0.30.0
 _ZN7CoapPdu10setPayloadERK10QByteArray@Base 0.30.0
 _ZN7CoapPdu10setVersionERKh@Base 0.30.0
 _ZN7CoapPdu11createTokenEv@Base 0.30.0
 _ZN7CoapPdu11qt_metacallEN11QMetaObject4CallEiPPv@Base 0.30.0
 _ZN7CoapPdu11qt_metacastEPKc@Base 0.30.0
 _ZN7CoapPdu12setMessageIdERKt@Base 0.30.0
 _ZN7CoapPdu13setStatusCodeERKNS_10StatusCodeE@Base 0.30.0
 _ZN7CoapPdu14setContentTypeERKNS_11ContentTypeE@Base 0.30.0
 _ZN7CoapPdu14setMessageTypeERKNS_11MessageTypeE@Base 0.30.0
 _ZN7CoapPdu15createMessageIdEv@Base 0.30.0
 _ZN7CoapPdu16staticMetaObjectE@Base 0.30.0
 _ZN7CoapPdu19getStatusCodeStringERKNS_10StatusCodeE@Base 0.30.0
 _ZN7CoapPdu5clearEv@Base 0.30.0
 _ZN7CoapPdu6unpackERK10QByteArray@Base 0.30.0
 _ZN7CoapPdu8setTokenERK10QByteArray@Base 0.30.0
 _ZN7CoapPdu9addOptionERKN10CoapOption6OptionERK10QByteArray@Base 0.30.0
 _ZN7CoapPduC1EP7QObject@Base 0.30.0
 _ZN7CoapPduC1ERK10QByteArrayP7QObject@Base 0.30.0
 _ZN7CoapPduC2EP7QObject@Base 0.30.0
 _ZN7CoapPduC2ERK10QByteArrayP7QObject@Base 0.30.0
 _ZN7Package10setSummaryERK7QString@Base 0.30.0
 _ZN7Package12setCanRemoveEb@Base 0.30.0
 _ZN7Package12setChangelogERK7QString@Base 0.30.0
 _ZN7Package16staticMetaObjectE@Base 0.30.0
 _ZN7Package18setUpdateAvailableEb@Base 0.30.0
 _ZN7Package19setCandidateVersionERK7QString@Base 0.30.0
 _ZN7Package19setInstalledVersionERK7QString@Base 0.30.0
 _ZN7Package20setRollbackAvailableEb@Base 0.30.0
 _ZN7PackageC1ERK7QStringS2_S2_S2_S2_@Base 0.30.0
 _ZN7PackageC2ERK7QStringS2_S2_S2_S2_@Base 0.30.0
 _ZN7Vendors16staticMetaObjectE@Base 0.30.0
 _ZN7Vendors3putERK8QVariant@Base 0.30.0
 _ZN7VendorsC1ERK5QListI6VendorE@Base 0.30.0
 _ZN7VendorsC1Ev@Base 0.30.0
 _ZN7VendorsC2ERK5QListI6VendorE@Base 0.30.0
 _ZN7VendorsC2Ev@Base 0.30.0
 _ZN8CoreLink13setObservableERKb@Base 0.30.0
 _ZN8CoreLink14setContentTypeERKN7CoapPdu11ContentTypeE@Base 0.30.0
 _ZN8CoreLink14setMaximumSizeERKi@Base 0.30.0
 _ZN8CoreLink15setResourceTypeERK7QString@Base 0.30.0
 _ZN8CoreLink23setInterfaceDescriptionERK7QString@Base 0.30.0
 _ZN8CoreLink7setPathERK7QString@Base 0.30.0
 _ZN8CoreLink8setTitleERK7QString@Base 0.30.0
 _ZN8CoreLinkC1Ev@Base 0.30.0
 _ZN8CoreLinkC2Ev@Base 0.30.0
 _ZN8Packages16staticMetaObjectE@Base 0.30.0
 _ZN8Packages3putERK8QVariant@Base 0.30.0
 _ZN8PackagesC1ERK5QListI7PackageE@Base 0.30.0
 _ZN8PackagesC1Ev@Base 0.30.0
 _ZN8PackagesC2ERK5QListI7PackageE@Base 0.30.0
 _ZN8PackagesC2Ev@Base 0.30.0
 _ZN8Radio43311qt_metacallEN11QMetaObject4CallEiPPv@Base 0.30.0
 _ZN8Radio43311qt_metacastEPKc@Base 0.30.0
 _ZN8Radio43316staticMetaObjectE@Base 0.30.0
 _ZN8Radio433C1EP7QObject@Base 0.30.0
 _ZN8Radio433C2EP7QObject@Base 0.30.0
 _ZN9ArpSocket10openSocketEv@Base 0.30.0
 _ZN9ArpSocket11arpResponseERK17QNetworkInterfaceRK12QHostAddressRK7QString@Base 0.30.0
 _ZN9ArpSocket11closeSocketEv@Base 0.30.0
 _ZN9ArpSocket11qt_metacallEN11QMetaObject4CallEiPPv@Base 0.30.0
 _ZN9ArpSocket11qt_metacastEPKc@Base 0.30.0
 _ZN9ArpSocket11sendRequestERK12QHostAddress@Base 0.30.0
 _ZN9ArpSocket11sendRequestERK17QNetworkInterface@Base 0.30.0
 _ZN9ArpSocket11sendRequestERK7QString@Base 0.30.0
 _ZN9ArpSocket11sendRequestEv@Base 0.30.0
 _ZN9ArpSocket12loadArpCacheERK17QNetworkInterface@Base 0.30.0
 _ZN9ArpSocket14fillMacAddressEPhRK7QString@Base 0.30.0
 _ZN9ArpSocket15fillHostAddressEPhRK12QHostAddress@Base 0.30.0
 _ZN9ArpSocket16staticMetaObjectE@Base 0.30.0
 _ZN9ArpSocket19getMacAddressStringEPh@Base 0.30.0
 _ZN9ArpSocket20getHostAddressStringEPh@Base 0.30.0
 _ZN9ArpSocket21sendRequestInternallyEiRK7QStringRK12QHostAddressS2_S5_@Base 0.30.0
 _ZN9ArpSocketC1EP7QObject@Base 0.30.0
 _ZN9ArpSocketC2EP7QObject@Base 0.30.0
 _ZN9CoapReply11qt_metacallEN11QMetaObject4CallEiPPv@Base 0.30.0
 _ZN9CoapReply11qt_metacastEPKc@Base 0.30.0
 _ZN9CoapReply11setFinishedEv@Base 0.30.0
 _ZN9CoapReply12setMessageIdERKi@Base 0.30.0
 _ZN9CoapReply13setStatusCodeERKN7CoapPdu10StatusCodeE@Base 0.30.0
 _ZN9CoapReply14setContentTypeEN7CoapPdu11ContentTypeE@Base 0.30.0
 _ZN9CoapReply14setHostAddressERK12QHostAddress@Base 0.30.0
 _ZN9CoapReply14setMessageTypeERKN7CoapPdu11MessageTypeE@Base 0.30.0
 _ZN9CoapReply14setObservationERKb@Base 0.30.0
 _ZN9CoapReply14setRequestDataERK10QByteArray@Base 0.30.0
 _ZN9CoapReply15setMessageTokenERK10QByteArray@Base 0.30.0
 _ZN9CoapReply16setRequestMethodERKN7CoapPdu10StatusCodeE@Base 0.30.0
 _ZN9CoapReply16staticMetaObjectE@Base 0.30.0
 _ZN9CoapReply17appendPayloadDataERK10QByteArray@Base 0.30.0
 _ZN9CoapReply17setRequestPayloadERK10QByteArray@Base 0.30.0
 _ZN9CoapReply20setObservationEnableERKb@Base 0.30.0
 _ZN9CoapReply5errorERKNS_5ErrorE@Base 0.30.0
 _ZN9CoapReply6resendEv@Base 0.30.0
 _ZN9CoapReply7setPortERKi@Base 0.30.0
 _ZN9CoapReply7timeoutEv@Base 0.30.0
 _ZN9CoapReply8finishedEv@Base 0.30.0
 _ZN9CoapReply8setErrorERKNS_5ErrorE@Base 0.30.0
 _ZN9CoapReplyC1ERK11CoapRequestP7QObject@Base 0.30.0
 _ZN9CoapReplyC2ERK11CoapRequestP7QObject@Base 0.30.0
 _ZN9EventType13setParamTypesERK10ParamTypes@Base 0.30.0
 _ZN9EventType14setDisplayNameERK7QString@Base 0.30.0
 _ZN9EventType14typePropertiesEv@Base 0.30.0
 _ZN9EventType16staticMetaObjectE@Base 0.30.0
 _ZN9EventType17setSuggestLoggingEb@Base 0.30.0
 _ZN9EventType23mandatoryTypePropertiesEv@Base 0.30.0
 _ZN9EventType7setNameERK7QString@Base 0.30.0
 _ZN9EventType8setIndexERKi@Base 0.30.0
 _ZN9EventTypeC1ERK11EventTypeId@Base 0.30.0
 _ZN9EventTypeC1Ev@Base 0.30.0
 _ZN9EventTypeC2ERK11EventTypeId@Base 0.30.0
 _ZN9EventTypeC2Ev@Base 0.30.0
 _ZN9I2CDevice11dataWrittenEb@Base 0.30.0
 _ZN9I2CDevice11qt_metacallEN11QMetaObject4CallEiPPv@Base 0.30.0
 _ZN9I2CDevice11qt_metacastEPKc@Base 0.30.0
 _ZN9I2CDevice16readingAvailableERK10QByteArray@Base 0.30.0
 _ZN9I2CDevice16staticMetaObjectE@Base 0.30.0
 _ZN9I2CDevice8readDataEi@Base 0.30.0
 _ZN9I2CDevice9writeDataEiRK10QByteArray@Base 0.30.0
 _ZN9I2CDeviceC1ERK7QStringiP7QObject@Base 0.30.0
 _ZN9I2CDeviceC2ERK7QStringiP7QObject@Base 0.30.0
 _ZN9I2CDeviceD0Ev@Base 0.30.0
 _ZN9I2CDeviceD1Ev@Base 0.30.0
 _ZN9I2CDeviceD2Ev@Base 0.30.0
 _ZN9InterfaceC1ERK7QStringRK20InterfaceActionTypesRK19InterfaceEventTypesRK19InterfaceStateTypes@Base 0.30.0
 _ZN9InterfaceC2ERK7QStringRK20InterfaceActionTypesRK19InterfaceEventTypesRK19InterfaceStateTypes@Base 0.30.0
 _ZN9JsonReply11createReplyEP11JsonHandlerRK4QMapI7QString8QVariantE@Base 0.30.0
 _ZN9JsonReply11qt_metacallEN11QMetaObject4CallEiPPv@Base 0.30.0
 _ZN9JsonReply11qt_metacastEPKc@Base 0.30.0
 _ZN9JsonReply11setClientIdERK5QUuid@Base 0.30.0
 _ZN9JsonReply12setCommandIdEi@Base 0.30.0
 _ZN9JsonReply16createAsyncReplyEP11JsonHandlerRK7QString@Base 0.30.0
 _ZN9JsonReply16staticMetaObjectE@Base 0.30.0
 _ZN9JsonReply7setDataERK4QMapI7QString8QVariantE@Base 0.30.0
 _ZN9JsonReply7timeoutEv@Base 0.30.0
 _ZN9JsonReply8finishedEv@Base 0.30.0
 _ZN9JsonReply9startWaitEv@Base 0.30.0
 _ZN9JsonReplyC1ENS_4TypeEP11JsonHandlerRK7QStringRK4QMapIS3_8QVariantE@Base 0.30.0
 _ZN9JsonReplyC2ENS_4TypeEP11JsonHandlerRK7QStringRK4QMapIS3_8QVariantE@Base 0.30.0
 _ZN9ParamList13setParamValueERK11ParamTypeIdRK8QVariant@Base 0.30.0
 _ZN9ParamList16staticMetaObjectE@Base 0.30.0
 _ZN9ParamList3getEi@Base 0.30.0
 _ZN9ParamList3putERK8QVariant@Base 0.30.0
 _ZN9ParamListC1ERK5QListI5ParamE@Base 0.30.0
 _ZN9ParamListC1Ev@Base 0.30.0
 _ZN9ParamListC2ERK5QListI5ParamE@Base 0.30.0
 _ZN9ParamListC2Ev@Base 0.30.0
 _ZN9ParamListlsERK5Param@Base 0.30.0
 _ZN9ParamType11setMaxValueERK8QVariant@Base 0.30.0
 _ZN9ParamType11setMinValueERK8QVariant@Base 0.30.0
 _ZN9ParamType11setReadOnlyERKb@Base 0.30.0
 _ZN9ParamType12setInputTypeERKN5Types9InputTypeE@Base 0.30.0
 _ZN9ParamType14setDisplayNameERK7QString@Base 0.30.0
 _ZN9ParamType14typePropertiesEv@Base 0.30.0
 _ZN9ParamType15setDefaultValueERK8QVariant@Base 0.30.0
 _ZN9ParamType16setAllowedValuesERK5QListI8QVariantE@Base 0.30.0
 _ZN9ParamType16staticMetaObjectE@Base 0.30.0
 _ZN9ParamType23mandatoryTypePropertiesEv@Base 0.30.0
 _ZN9ParamType7setNameERK7QString@Base 0.30.0
 _ZN9ParamType7setTypeEN8QVariant4TypeE@Base 0.30.0
 _ZN9ParamType7setUnitERKN5Types4UnitE@Base 0.30.0
 _ZN9ParamType8setIndexERKi@Base 0.30.0
 _ZN9ParamType9setLimitsERK8QVariantS2_@Base 0.30.0
 _ZN9ParamTypeC1ERK11ParamTypeIdRK7QStringN8QVariant4TypeERKS6_@Base 0.30.0
 _ZN9ParamTypeC2ERK11ParamTypeIdRK7QStringN8QVariant4TypeERKS6_@Base 0.30.0
 _ZN9PingReply11qt_metacallEN11QMetaObject4CallEiPPv@Base 0.30.0
 _ZN9PingReply11qt_metacastEPKc@Base 0.30.0
 _ZN9PingReply16staticMetaObjectE@Base 0.30.0
 _ZN9PingReply7timeoutEv@Base 0.30.0
 _ZN9PingReply8finishedEv@Base 0.30.0
 _ZN9PingReplyC1EP7QObject@Base 0.30.0
 _ZN9PingReplyC2EP7QObject@Base 0.30.0
 _ZN9QtPrivate11QSlotObjectIM18MacAddressDatabaseFvvENS_4ListIJEEEvE4implEiPNS_15QSlotObjectBaseEP7QObjectPPvPb@Base 0.30.0
 _ZN9QtPrivate11QSlotObjectIM22NetworkDeviceDiscoveryFvRK17QNetworkInterfaceRK12QHostAddressRK7QStringENS_4ListIJS4_S7_SA_EEEvE4implEiPNS_15QSlotObjectBaseEP7QObjectPPvPb@Base 0.30.0
 _ZN9QtPrivate11QSlotObjectIM4CoapFvvENS_4ListIJEEEvE4implEiPNS_15QSlotObjectBaseEP7QObjectPPvPb@Base 0.30.0
 _ZN9QtPrivate11QSlotObjectIM4PingFviENS_4ListIJ17QSocketDescriptorEEEvE4implEiPNS_15QSlotObjectBaseEP7QObjectPPvPb@Base 0.30.0
 _ZN9QtPrivate11QSlotObjectIM6OAuth2FvP13QNetworkReplyENS_4ListIJS3_EEEvE4implEiPNS_15QSlotObjectBaseEP7QObjectPPvPb@Base 0.30.0
 _ZN9QtPrivate11QSlotObjectIM6OAuth2FvvENS_4ListIJEEEvE4implEiPNS_15QSlotObjectBaseEP7QObjectPPvPb@Base 0.30.0
 _ZN9QtPrivate11QSlotObjectIM6QTimerFvvENS_4ListIJEEEvE4implEiPNS_15QSlotObjectBaseEP7QObjectPPvPb@Base 0.30.0
 _ZN9QtPrivate11QSlotObjectIM7QObjectFvvENS_4ListIJEEEvE4implEiPNS_15QSlotObjectBaseEPS1_PPvPb@Base 0.30.0
 _ZN9QtPrivate11QSlotObjectIM9CoapReplyFvvENS_4ListIJEEEvE4implEiPNS_15QSlotObjectBaseEP7QObjectPPvPb@Base 0.30.0
 _ZN9QtPrivate11QSlotObjectIM9JsonReplyFvvENS_4ListIJEEEvE4implEiPNS_15QSlotObjectBaseEP7QObjectPPvPb@Base 0.30.0
 _ZN9QtPrivate11QSlotObjectIM9PingReplyFvvENS_4ListIJEEEvE4implEiPNS_15QSlotObjectBaseEP7QObjectPPvPb@Base 0.30.0
 _ZN9QtPrivate16ConverterFunctorI5QListI11EventTypeIdEN17QtMetaTypePrivate23QSequentialIterableImplENS4_33QSequentialIterableConvertFunctorIS3_EEE7convertEPKNS_25AbstractConverterFunctionEPKvPv@Base 0.30.0
 _ZN9QtPrivate16ConverterFunctorI5QListI12ActionTypeIdEN17QtMetaTypePrivate23QSequentialIterableImplENS4_33QSequentialIterableConvertFunctorIS3_EEE7convertEPKNS_25AbstractConverterFunctionEPKvPv@Base 0.30.0
 _ZN9QtPrivate16ConverterFunctorI5QListI5QUuidEN17QtMetaTypePrivate23QSequentialIterableImplENS4_33QSequentialIterableConvertFunctorIS3_EEE7convertEPKNS_25AbstractConverterFunctionEPKvPv@Base 0.30.0
 _ZN9QtPrivate16ConverterFunctorI5QListI9QDateTimeEN17QtMetaTypePrivate23QSequentialIterableImplENS4_33QSequentialIterableConvertFunctorIS3_EEE7convertEPKNS_25AbstractConverterFunctionEPKvPv@Base 0.30.0
 _ZN9QtPrivate16ConverterFunctorI5QListIiEN17QtMetaTypePrivate23QSequentialIterableImplENS3_33QSequentialIterableConvertFunctorIS2_EEE7convertEPKNS_25AbstractConverterFunctionEPKvPv@Base 0.30.0
 _ZN9StateType11setMaxValueERK8QVariant@Base 0.30.0
 _ZN9StateType11setMinValueERK8QVariant@Base 0.30.0
 _ZN9StateType11setWritableEb@Base 0.30.0
 _ZN9StateType14setDisplayNameERK7QString@Base 0.30.0
 _ZN9StateType15setDefaultValueERK8QVariant@Base 0.30.0
 _ZN9StateType16staticMetaObjectE@Base 0.30.0
 _ZN9StateType17setPossibleValuesERK5QListI8QVariantE@Base 0.30.0
 _ZN9StateType17setSuggestLoggingEb@Base 0.30.0
 _ZN9StateType7setNameERK7QString@Base 0.30.0
 _ZN9StateType7setTypeERKN8QVariant4TypeE@Base 0.30.0
 _ZN9StateType7setUnitERKN5Types4UnitE@Base 0.30.0
 _ZN9StateType8setIndexERKi@Base 0.30.0
 _ZN9StateType9setCachedEb@Base 0.30.0
 _ZN9StateType9setFilterEN5Types16StateValueFilterE@Base 0.30.0
 _ZN9StateType9setIOTypeEN5Types6IOTypeE@Base 0.30.0
 _ZN9StateTypeC1ERK11StateTypeId@Base 0.30.0
 _ZN9StateTypeC1Ev@Base 0.30.0
 _ZN9StateTypeC2ERK11StateTypeId@Base 0.30.0
 _ZN9StateTypeC2Ev@Base 0.30.0
 _ZNK10ActionType10paramTypesEv@Base 0.30.0
 _ZNK10ActionType11displayNameEv@Base 0.30.0
 _ZNK10ActionType2idEv@Base 0.30.0
 _ZNK10ActionType4nameEv@Base 0.30.0
 _ZNK10ActionType5indexEv@Base 0.30.0
 _ZNK10CoapOption4dataEv@Base 0.30.0
 _ZNK10CoapOption6optionEv@Base 0.30.0
 _ZNK10EventTypes3getEi@Base 0.30.0
 _ZNK10EventTypes8containsERK11EventTypeId@Base 0.30.0
 _ZNK10EventTypes8containsERK7QString@Base 0.30.0
 _ZNK10I2CManager10metaObjectEv@Base 0.30.0
 _ZNK10ParamTypes10findByNameERK7QString@Base 0.30.0
 _ZNK10ParamTypes3getEi@Base 0.30.0
 _ZNK10ParamTypes8findByIdERK11ParamTypeId@Base 0.30.0
 _ZNK10Repository11displayNameEv@Base 0.30.0
 _ZNK10Repository2idEv@Base 0.30.0
 _ZNK10Repository7enabledEv@Base 0.30.0
 _ZNK10StateTypes3getEi@Base 0.30.0
 _ZNK10ThingClass10eventTypesEv@Base 0.30.0
 _ZNK10ThingClass10interfacesEv@Base 0.30.0
 _ZNK10ThingClass10paramTypesEv@Base 0.30.0
 _ZNK10ThingClass10stateTypesEv@Base 0.30.0
 _ZNK10ThingClass11actionTypesEv@Base 0.30.0
 _ZNK10ThingClass11displayNameEv@Base 0.30.0
 _ZNK10ThingClass11setupMethodEv@Base 0.30.0
 _ZNK10ThingClass12hasEventTypeERK11EventTypeId@Base 0.30.0
 _ZNK10ThingClass12hasEventTypeERK7QString@Base 0.30.0
 _ZNK10ThingClass12hasStateTypeERK11StateTypeId@Base 0.30.0
 _ZNK10ThingClass12hasStateTypeERK7QString@Base 0.30.0
 _ZNK10ThingClass13createMethodsEv@Base 0.30.0
 _ZNK10ThingClass13hasActionTypeERK12ActionTypeId@Base 0.30.0
 _ZNK10ThingClass13hasActionTypeERK7QString@Base 0.30.0
 _ZNK10ThingClass13settingsTypesEv@Base 0.30.0
 _ZNK10ThingClass18providedInterfacesEv@Base 0.30.0
 _ZNK10ThingClass19discoveryParamTypesEv@Base 0.30.0
 _ZNK10ThingClass22browserItemActionTypesEv@Base 0.30.0
 _ZNK10ThingClass2idEv@Base 0.30.0
 _ZNK10ThingClass4nameEv@Base 0.30.0
 _ZNK10ThingClass7isValidEv@Base 0.30.0
 _ZNK10ThingClass8pluginIdEv@Base 0.30.0
 _ZNK10ThingClass8vendorIdEv@Base 0.30.0
 _ZNK10ThingClass9browsableEv@Base 0.30.0
 _ZNK10ThingClasseqERKS_@Base 0.30.0
 _ZNK10UpnpDevice10deviceTypeEv@Base 0.30.0
 _ZNK10UpnpDevice10metaObjectEv@Base 0.30.0
 _ZNK10UpnpDevice11hostAddressEv@Base 0.30.0
 _ZNK10UpnpDevice11modelNumberEv@Base 0.30.0
 _ZNK10UpnpDevice12friendlyNameEv@Base 0.30.0
 _ZNK10UpnpDevice12manufacturerEv@Base 0.30.0
 _ZNK10UpnpDevice12serialNumberEv@Base 0.30.0
 _ZNK10UpnpDevice15manufacturerURLEv@Base 0.30.0
 _ZNK10UpnpDevice16modelDescriptionEv@Base 0.30.0
 _ZNK10UpnpDevice3upcEv@Base 0.30.0
 _ZNK10UpnpDevice4portEv@Base 0.30.0
 _ZNK10UpnpDevice4uuidEv@Base 0.30.0
 _ZNK10UpnpDevice8modelURLEv@Base 0.30.0
 _ZNK10UpnpDevice9modelNameEv@Base 0.30.0
 _ZNK11ActionTypes3getEi@Base 0.30.0
 _ZNK11ActionTypes8containsERK12ActionTypeId@Base 0.30.0
 _ZNK11ActionTypes8containsERK7QString@Base 0.30.0
 _ZNK11BrowserItem10executableEv@Base 0.30.0
 _ZNK11BrowserItem11descriptionEv@Base 0.30.0
 _ZNK11BrowserItem11displayNameEv@Base 0.30.0
 _ZNK11BrowserItem13actionTypeIdsEv@Base 0.30.0
 _ZNK11BrowserItem16extendedPropertyERK7QString@Base 0.30.0
 _ZNK11BrowserItem23extendedPropertiesFlagsEv@Base 0.30.0
 _ZNK11BrowserItem2idEv@Base 0.30.0
 _ZNK11BrowserItem4iconEv@Base 0.30.0
 _ZNK11BrowserItem8disabledEv@Base 0.30.0
 _ZNK11BrowserItem9browsableEv@Base 0.30.0
 _ZNK11BrowserItem9thumbnailEv@Base 0.30.0
 _ZNK11CoapRequest11contentTypeEv@Base 0.30.0
 _ZNK11CoapRequest11messageTypeEv@Base 0.30.0
 _ZNK11CoapRequest3urlEv@Base 0.30.0
 _ZNK11JsonContext5tokenEv@Base 0.30.0
 _ZNK11JsonContext6localeEv@Base 0.30.0
 _ZNK11JsonContext8clientIdEv@Base 0.30.0
 _ZNK11JsonHandler10metaObjectEv@Base 0.30.0
 _ZNK11JsonHandler11cacheHashesEv@Base 0.30.0
 _ZNK11JsonHandler11createReplyERK4QMapI7QString8QVariantE@Base 0.30.0
 _ZNK11JsonHandler11jsonMethodsEv@Base 0.30.0
 _ZNK11JsonHandler11jsonObjectsEv@Base 0.30.0
 _ZNK11JsonHandler16createAsyncReplyERK7QString@Base 0.30.0
 _ZNK11JsonHandler17jsonNotificationsEv@Base 0.30.0
 _ZNK11JsonHandler4packERK11QMetaObjectPKv@Base 0.30.0
 _ZNK11JsonHandler6unpackERK11QMetaObjectRK8QVariant@Base 0.30.0
 _ZNK11JsonHandler9jsonEnumsEv@Base 0.30.0
 _ZNK11JsonHandler9jsonFlagsEv@Base 0.30.0
 _ZNK11MqttChannel10metaObjectEv@Base 0.30.0
 _ZNK11PluginTimer10metaObjectEv@Base 0.30.0
 _ZNK11ServiceData4dataEv@Base 0.30.0
 _ZNK11ServiceData7thingIdEv@Base 0.30.0
 _ZNK11ServiceData9timestampEv@Base 0.30.0
 _ZNK12BrowseResult10isFinishedEv@Base 0.30.0
 _ZNK12BrowseResult10metaObjectEv@Base 0.30.0
 _ZNK12BrowseResult14displayMessageEv@Base 0.30.0
 _ZNK12BrowseResult5itemsEv@Base 0.30.0
 _ZNK12BrowseResult5thingEv@Base 0.30.0
 _ZNK12BrowseResult6itemIdEv@Base 0.30.0
 _ZNK12BrowseResult6localeEv@Base 0.30.0
 _ZNK12BrowseResult6statusEv@Base 0.30.0
 _ZNK12CalendarItem13evaluateDailyERK9QDateTime@Base 0.30.0
 _ZNK12CalendarItem14evaluateHourlyERK9QDateTime@Base 0.30.0
 _ZNK12CalendarItem14evaluateWeeklyERK9QDateTime@Base 0.30.0
 _ZNK12CalendarItem14evaluateYearlyERK9QDateTime@Base 0.30.0
 _ZNK12CalendarItem15evaluateMonthlyERK9QDateTime@Base 0.30.0
 _ZNK12CalendarItem15repeatingOptionEv@Base 0.30.0
 _ZNK12CalendarItem7isValidEv@Base 0.30.0
 _ZNK12CalendarItem8dateTimeEv@Base 0.30.0
 _ZNK12CalendarItem8durationEv@Base 0.30.0
 _ZNK12CalendarItem8evaluateERK9QDateTime@Base 0.30.0
 _ZNK12CalendarItem9startTimeEv@Base 0.30.0
 _ZNK12CoapPduBlock11blockNumberEv@Base 0.30.0
 _ZNK12CoapPduBlock8moreFlagEv@Base 0.30.0
 _ZNK12CoapPduBlock9blockSizeEv@Base 0.30.0
 _ZNK12IOConnection12inputThingIdEv@Base 0.30.0
 _ZNK12IOConnection13outputThingIdEv@Base 0.30.0
 _ZNK12IOConnection16inputStateTypeIdEv@Base 0.30.0
 _ZNK12IOConnection17outputStateTypeIdEv@Base 0.30.0
 _ZNK12IOConnection2idEv@Base 0.30.0
 _ZNK12IOConnection8invertedEv@Base 0.30.0
 _ZNK12MqttProvider10metaObjectEv@Base 0.30.0
 _ZNK12Repositories3getEi@Base 0.30.0
 _ZNK12ThingClasses3getEi@Base 0.30.0
 _ZNK12ThingClasses8findByIdERK12ThingClassId@Base 0.30.0
 _ZNK12ThingManager10metaObjectEv@Base 0.30.0
 _ZNK13ApiKeyStorage10metaObjectEv@Base 0.30.0
 _ZNK13ApiKeyStorage10requestKeyERK7QString@Base 0.30.0
 _ZNK13BrowserAction6itemIdEv@Base 0.30.0
 _ZNK13BrowserAction7isValidEv@Base 0.30.0
 _ZNK13BrowserAction7thingIdEv@Base 0.30.0
 _ZNK13CalendarItems3getEi@Base 0.30.0
 _ZNK13IOConnections3getEi@Base 0.30.0
 _ZNK13NymeaSettings10isWritableEv@Base 0.30.0
 _ZNK13NymeaSettings10metaObjectEv@Base 0.30.0
 _ZNK13NymeaSettings11childGroupsEv@Base 0.30.0
 _ZNK13NymeaSettings12settingsRoleEv@Base 0.30.0
 _ZNK13NymeaSettings5groupEv@Base 0.30.0
 _ZNK13NymeaSettings5valueERK7QStringRK8QVariant@Base 0.30.0
 _ZNK13NymeaSettings7allKeysEv@Base 0.30.0
 _ZNK13NymeaSettings8containsERK7QString@Base 0.30.0
 _ZNK13NymeaSettings8fileNameEv@Base 0.30.0
 _ZNK13NymeaSettings9childKeysEv@Base 0.30.0
 _ZNK13TimeEventItem15repeatingOptionEv@Base 0.30.0
 _ZNK13TimeEventItem4timeEv@Base 0.30.0
 _ZNK13TimeEventItem7isValidEv@Base 0.30.0
 _ZNK13TimeEventItem8dateTimeEv@Base 0.30.0
 _ZNK13TimeEventItem8evaluateERK9QDateTimeS2_@Base 0.30.0
 _ZNK13UpnpDiscovery10metaObjectEv@Base 0.30.0
 _ZNK14CoreLinkParser10metaObjectEv@Base 0.30.0
 _ZNK14CoreLinkParser5linksEv@Base 0.30.0
 _ZNK14ModbusRtuReply10metaObjectEv@Base 0.30.0
 _ZNK14PluginMetadata10jsonObjectEv@Base 0.30.0
 _ZNK14PluginMetadata10pluginNameEv@Base 0.30.0
 _ZNK14PluginMetadata12thingClassesEv@Base 0.30.0
 _ZNK14PluginMetadata14pluginSettingsEv@Base 0.30.0
 _ZNK14PluginMetadata16validationErrorsEv@Base 0.30.0
 _ZNK14PluginMetadata17pluginDisplayNameEv@Base 0.30.0
 _ZNK14PluginMetadata7apiKeysEv@Base 0.30.0
 _ZNK14PluginMetadata7isValidEv@Base 0.30.0
 _ZNK14PluginMetadata7vendorsEv@Base 0.30.0
 _ZNK14PluginMetadata8pluginIdEv@Base 0.30.0
 _ZNK14PluginMetadata9isBuiltInEv@Base 0.30.0
 _ZNK14ThingSetupInfo10isFinishedEv@Base 0.30.0
 _ZNK14ThingSetupInfo10metaObjectEv@Base 0.30.0
 _ZNK14ThingSetupInfo14displayMessageEv@Base 0.30.0
 _ZNK14ThingSetupInfo5thingEv@Base 0.30.0
 _ZNK14ThingSetupInfo6statusEv@Base 0.30.0
 _ZNK14TimeDescriptor13calendarItemsEv@Base 0.30.0
 _ZNK14TimeDescriptor14timeEventItemsEv@Base 0.30.0
 _ZNK14TimeDescriptor7isEmptyEv@Base 0.30.0
 _ZNK14TimeDescriptor7isValidEv@Base 0.30.0
 _ZNK14TimeDescriptor8evaluateERK9QDateTimeS2_@Base 0.30.0
 _ZNK14TimeEventItems3getEi@Base 0.30.0
 _ZNK15ApiKeysProvider10metaObjectEv@Base 0.30.0
 _ZNK15EventDescriptor11eventTypeIdEv@Base 0.30.0
 _ZNK15EventDescriptor14interfaceEventEv@Base 0.30.0
 _ZNK15EventDescriptor15paramDescriptorERK11ParamTypeId@Base 0.30.0
 _ZNK15EventDescriptor16paramDescriptorsEv@Base 0.30.0
 _ZNK15EventDescriptor4typeEv@Base 0.30.0
 _ZNK15EventDescriptor7isValidEv@Base 0.30.0
 _ZNK15EventDescriptor7thingIdEv@Base 0.30.0
 _ZNK15EventDescriptor9interfaceEv@Base 0.30.0
 _ZNK15EventDescriptoreqERKS_@Base 0.30.0
 _ZNK15HardwareManager10metaObjectEv@Base 0.30.0
 _ZNK15ModbusRtuMaster10metaObjectEv@Base 0.30.0
 _ZNK15ParamDescriptor12operatorTypeEv@Base 0.30.0
 _ZNK15ParamDescriptor9paramNameEv@Base 0.30.0
 _ZNK15RepeatingOption15evaluateWeekDayERK9QDateTime@Base 0.30.0
 _ZNK15RepeatingOption16evaluateMonthDayERK9QDateTime@Base 0.30.0
 _ZNK15RepeatingOption4modeEv@Base 0.30.0
 _ZNK15RepeatingOption7isEmtpyEv@Base 0.30.0
 _ZNK15RepeatingOption7isValidEv@Base 0.30.0
 _ZNK15RepeatingOption8weekDaysEv@Base 0.30.0
 _ZNK15RepeatingOption9monthDaysEv@Base 0.30.0
 _ZNK15StateDescriptor10stateValueEv@Base 0.30.0
 _ZNK15StateDescriptor11stateTypeIdEv@Base 0.30.0
 _ZNK15StateDescriptor12operatorTypeEv@Base 0.30.0
 _ZNK15StateDescriptor12valueThingIdEv@Base 0.30.0
 _ZNK15StateDescriptor14interfaceStateEv@Base 0.30.0
 _ZNK15StateDescriptor16valueStateTypeIdEv@Base 0.30.0
 _ZNK15StateDescriptor4typeEv@Base 0.30.0
 _ZNK15StateDescriptor7isValidEv@Base 0.30.0
 _ZNK15StateDescriptor7thingIdEv@Base 0.30.0
 _ZNK15StateDescriptor9interfaceEv@Base 0.30.0
 _ZNK15StateDescriptoreqERKS_@Base 0.30.0
 _ZNK15ThingActionInfo10isFinishedEv@Base 0.30.0
 _ZNK15ThingActionInfo10metaObjectEv@Base 0.30.0
 _ZNK15ThingActionInfo14displayMessageEv@Base 0.30.0
 _ZNK15ThingActionInfo5thingEv@Base 0.30.0
 _ZNK15ThingActionInfo6actionEv@Base 0.30.0
 _ZNK15ThingActionInfo6statusEv@Base 0.30.0
 _ZNK15ThingDescriptor11descriptionEv@Base 0.30.0
 _ZNK15ThingDescriptor12thingClassIdEv@Base 0.30.0
 _ZNK15ThingDescriptor2idEv@Base 0.30.0
 _ZNK15ThingDescriptor5titleEv@Base 0.30.0
 _ZNK15ThingDescriptor6paramsEv@Base 0.30.0
 _ZNK15ThingDescriptor7isValidEv@Base 0.30.0
 _ZNK15ThingDescriptor7thingIdEv@Base 0.30.0
 _ZNK15ThingDescriptor8parentIdEv@Base 0.30.0
 _ZNK16EventDescriptors3getEi@Base 0.30.0
 _ZNK16ExperiencePlugin10metaObjectEv@Base 0.30.0
 _ZNK16HardwareResource10metaObjectEv@Base 0.30.0
 _ZNK16HardwareResource4nameEv@Base 0.30.0
 _ZNK16MediaBrowserItem9mediaIconEv@Base 0.30.0
 _ZNK16MediaBrowserItem9playCountEv@Base 0.30.0
 _ZNK16NymeaDBusService10connectionEv@Base 0.30.0
 _ZNK16NymeaDBusService10metaObjectEv@Base 0.30.0
 _ZNK16ParamDescriptors3getEi@Base 0.30.0
 _ZNK16ThingDescriptors3getEi@Base 0.30.0
 _ZNK16ThingPairingInfo10metaObjectEv@Base 0.30.0
 _ZNK16ThingPairingInfo12thingClassIdEv@Base 0.30.0
 _ZNK16ThingPairingInfo13transactionIdEv@Base 0.30.0
 _ZNK16ThingPairingInfo14displayMessageEv@Base 0.30.0
 _ZNK16ThingPairingInfo24translatedDisplayMessageERK7QLocale@Base 0.30.0
 _ZNK16ThingPairingInfo6paramsEv@Base 0.30.0
 _ZNK16ThingPairingInfo6statusEv@Base 0.30.0
 _ZNK16ThingPairingInfo7thingIdEv@Base 0.30.0
 _ZNK16ThingPairingInfo8oAuthUrlEv@Base 0.30.0
 _ZNK16ThingPairingInfo8parentIdEv@Base 0.30.0
 _ZNK16ThingPairingInfo9thingNameEv@Base 0.30.0
 _ZNK17BrowserActionInfo10isFinishedEv@Base 0.30.0
 _ZNK17BrowserActionInfo10metaObjectEv@Base 0.30.0
 _ZNK17BrowserActionInfo13browserActionEv@Base 0.30.0
 _ZNK17BrowserActionInfo14displayMessageEv@Base 0.30.0
 _ZNK17BrowserActionInfo5thingEv@Base 0.30.0
 _ZNK17BrowserActionInfo6statusEv@Base 0.30.0
 _ZNK17BrowserItemAction12actionTypeIdEv@Base 0.30.0
 _ZNK17BrowserItemAction6itemIdEv@Base 0.30.0
 _ZNK17BrowserItemAction6paramsEv@Base 0.30.0
 _ZNK17BrowserItemAction7isValidEv@Base 0.30.0
 _ZNK17BrowserItemAction7thingIdEv@Base 0.30.0
 _ZNK17BrowserItemResult10isFinishedEv@Base 0.30.0
 _ZNK17BrowserItemResult10metaObjectEv@Base 0.30.0
 _ZNK17BrowserItemResult14displayMessageEv@Base 0.30.0
 _ZNK17BrowserItemResult4itemEv@Base 0.30.0
 _ZNK17BrowserItemResult5thingEv@Base 0.30.0
 _ZNK17BrowserItemResult6itemIdEv@Base 0.30.0
 _ZNK17BrowserItemResult6localeEv@Base 0.30.0
 _ZNK17BrowserItemResult6statusEv@Base 0.30.0
 _ZNK17IntegrationPlugin10metaObjectEv@Base 0.30.0
 _ZNK17IntegrationPlugin10pluginNameEv@Base 0.30.0
 _ZNK17IntegrationPlugin10thingClassERK12ThingClassId@Base 0.30.0
 _ZNK17IntegrationPlugin11configValueERK11ParamTypeId@Base 0.30.0
 _ZNK17IntegrationPlugin13apiKeyStorageEv@Base 0.30.0
 _ZNK17IntegrationPlugin13configurationEv@Base 0.30.0
 _ZNK17IntegrationPlugin13pluginStorageEv@Base 0.30.0
 _ZNK17IntegrationPlugin15hardwareManagerEv@Base 0.30.0
 _ZNK17IntegrationPlugin15supportedThingsEv@Base 0.30.0
 _ZNK17IntegrationPlugin16supportedVendorsEv@Base 0.30.0
 _ZNK17IntegrationPlugin17pluginDisplayNameEv@Base 0.30.0
 _ZNK17IntegrationPlugin18serviceInformationEv@Base 0.30.0
 _ZNK17IntegrationPlugin24configurationDescriptionEv@Base 0.30.0
 _ZNK17IntegrationPlugin8myThingsEv@Base 0.30.0
 _ZNK17IntegrationPlugin8pluginIdEv@Base 0.30.0
 _ZNK17IntegrationPlugin9isBuiltInEv@Base 0.30.0
 _ZNK17NetworkDeviceInfo10macAddressEv@Base 0.30.0
 _ZNK17NetworkDeviceInfo16networkInterfaceEv@Base 0.30.0
 _ZNK17NetworkDeviceInfo22macAddressManufacturerEv@Base 0.30.0
 _ZNK17NetworkDeviceInfo7addressEv@Base 0.30.0
 _ZNK17NetworkDeviceInfo7isValidEv@Base 0.30.0
 _ZNK17NetworkDeviceInfo8hostNameEv@Base 0.30.0
 _ZNK18IntegrationPlugins3getEi@Base 0.30.0
 _ZNK18IntegrationPlugins8findByIdERK8PluginId@Base 0.30.0
 _ZNK18InterfaceEventType15loggingOverrideEv@Base 0.30.0
 _ZNK18InterfaceEventType8optionalEv@Base 0.30.0
 _ZNK18InterfaceStateType15loggingOverrideEv@Base 0.30.0
 _ZNK18InterfaceStateType8optionalEv@Base 0.30.0
 _ZNK18MacAddressDatabase10metaObjectEv@Base 0.30.0
 _ZNK18MacAddressDatabase9availableEv@Base 0.30.0
 _ZNK18PluginTimerManager10metaObjectEv@Base 0.30.0
 _ZNK18ThingDiscoveryInfo10isFinishedEv@Base 0.30.0
 _ZNK18ThingDiscoveryInfo10metaObjectEv@Base 0.30.0
 _ZNK18ThingDiscoveryInfo12thingClassIdEv@Base 0.30.0
 _ZNK18ThingDiscoveryInfo14displayMessageEv@Base 0.30.0
 _ZNK18ThingDiscoveryInfo16thingDescriptorsEv@Base 0.30.0
 _ZNK18ThingDiscoveryInfo6paramsEv@Base 0.30.0
 _ZNK18ThingDiscoveryInfo6statusEv@Base 0.30.0
 _ZNK18UpnpDiscoveryReply10metaObjectEv@Base 0.30.0
 _ZNK19CoapObserveResource3urlEv@Base 0.30.0
 _ZNK19CoapObserveResource5tokenEv@Base 0.30.0
 _ZNK19InterfaceActionType8optionalEv@Base 0.30.0
 _ZNK20NetworkAccessManager10metaObjectEv@Base 0.30.0
 _ZNK20UpnpDeviceDescriptor10deviceTypeEv@Base 0.30.0
 _ZNK20UpnpDeviceDescriptor11hostAddressEv@Base 0.30.0
 _ZNK20UpnpDeviceDescriptor11modelNumberEv@Base 0.30.0
 _ZNK20UpnpDeviceDescriptor12friendlyNameEv@Base 0.30.0
 _ZNK20UpnpDeviceDescriptor12manufacturerEv@Base 0.30.0
 _ZNK20UpnpDeviceDescriptor12serialNumberEv@Base 0.30.0
 _ZNK20UpnpDeviceDescriptor15manufacturerURLEv@Base 0.30.0
 _ZNK20UpnpDeviceDescriptor16modelDescriptionEv@Base 0.30.0
 _ZNK20UpnpDeviceDescriptor3upcEv@Base 0.30.0
 _ZNK20UpnpDeviceDescriptor4portEv@Base 0.30.0
 _ZNK20UpnpDeviceDescriptor4uuidEv@Base 0.30.0
 _ZNK20UpnpDeviceDescriptor8locationEv@Base 0.30.0
 _ZNK20UpnpDeviceDescriptor8modelURLEv@Base 0.30.0
 _ZNK20UpnpDeviceDescriptor9modelNameEv@Base 0.30.0
 _ZNK20ZeroConfServiceEntry10isWideAreaEv@Base 0.30.0
 _ZNK20ZeroConfServiceEntry11hostAddressEv@Base 0.30.0
 _ZNK20ZeroConfServiceEntry11isMulticastEv@Base 0.30.0
 _ZNK20ZeroConfServiceEntry11serviceTypeEv@Base 0.30.0
 _ZNK20ZeroConfServiceEntry3txtERK7QString@Base 0.30.0
 _ZNK20ZeroConfServiceEntry3txtEv@Base 0.30.0
 _ZNK20ZeroConfServiceEntry4nameEv@Base 0.30.0
 _ZNK20ZeroConfServiceEntry4portEv@Base 0.30.0
 _ZNK20ZeroConfServiceEntry6domainEv@Base 0.30.0
 _ZNK20ZeroConfServiceEntry7isLocalEv@Base 0.30.0
 _ZNK20ZeroConfServiceEntry7isValidEv@Base 0.30.0
 _ZNK20ZeroConfServiceEntry8hostNameEv@Base 0.30.0
 _ZNK20ZeroConfServiceEntry8isOurOwnEv@Base 0.30.0
 _ZNK20ZeroConfServiceEntry8protocolEv@Base 0.30.0
 _ZNK20ZeroConfServiceEntry9isChachedEv@Base 0.30.0
 _ZNK20ZeroConfServiceEntryeqERKS_@Base 0.30.0
 _ZNK20ZeroConfServiceEntryneERKS_@Base 0.30.0
 _ZNK21BrowserItemActionInfo10isFinishedEv@Base 0.30.0
 _ZNK21BrowserItemActionInfo10metaObjectEv@Base 0.30.0
 _ZNK21BrowserItemActionInfo14displayMessageEv@Base 0.30.0
 _ZNK21BrowserItemActionInfo17browserItemActionEv@Base 0.30.0
 _ZNK21BrowserItemActionInfo5thingEv@Base 0.30.0
 _ZNK21BrowserItemActionInfo6statusEv@Base 0.30.0
 _ZNK22NetworkDeviceDiscovery10metaObjectEv@Base 0.30.0
 _ZNK22NetworkDeviceDiscovery7runningEv@Base 0.30.0
 _ZNK22NetworkDeviceDiscovery9availableEv@Base 0.30.0
 _ZNK22ZeroConfServiceBrowser10metaObjectEv@Base 0.30.0
 _ZNK22ZeroConfServiceBrowser14serviceEntriesEv@Base 0.30.0
 _ZNK22ZigbeeHardwareResource10metaObjectEv@Base 0.30.0
 _ZNK23BluetoothDiscoveryReply10metaObjectEv@Base 0.30.0
 _ZNK23MacAddressDatabaseReply10metaObjectEv@Base 0.30.0
 _ZNK24BluetoothLowEnergyDevice10metaObjectEv@Base 0.30.0
 _ZNK24PlatformSystemController10metaObjectEv@Base 0.30.0
 _ZNK24PlatformSystemController13automaticTimeEv@Base 0.30.0
 _ZNK24PlatformSystemController18deviceSerialNumberEv@Base 0.30.0
 _ZNK24PlatformSystemController22automaticTimeAvailableEv@Base 0.30.0
 _ZNK24PlatformSystemController23timeManagementAvailableEv@Base 0.30.0
 _ZNK24PlatformSystemController24powerManagementAvailableEv@Base 0.30.0
 _ZNK24PlatformUpdateController10metaObjectEv@Base 0.30.0
 _ZNK24PlatformUpdateController12repositoriesEv@Base 0.30.0
 _ZNK24PlatformUpdateController13updateRunningEv@Base 0.30.0
 _ZNK24PlatformUpdateController25updateManagementAvailableEv@Base 0.30.0
 _ZNK24PlatformUpdateController4busyEv@Base 0.30.0
 _ZNK24PlatformUpdateController8packagesEv@Base 0.30.0
 _ZNK24StateValueFilterAdaptive13filteredValueEv@Base 0.30.0
 _ZNK24ZeroConfServicePublisher10metaObjectEv@Base 0.30.0
 _ZNK25BluetoothLowEnergyManager10metaObjectEv@Base 0.30.0
 _ZNK25ModbusRtuHardwareResource10metaObjectEv@Base 0.30.0
 _ZNK26PlatformZeroConfController10metaObjectEv@Base 0.30.0
 _ZNK26PlatformZeroConfController16servicePublisherEv@Base 0.30.0
 _ZNK26PlatformZeroConfController7enabledEv@Base 0.30.0
 _ZNK26PlatformZeroConfController9availableEv@Base 0.30.0
 _ZNK27NetworkDeviceDiscoveryReply10metaObjectEv@Base 0.30.0
 _ZNK3Pwm10metaObjectEv@Base 0.30.0
 _ZNK4Coap10metaObjectEv@Base 0.30.0
 _ZNK4Ping10metaObjectEv@Base 0.30.0
 _ZNK4Ping5errorEv@Base 0.30.0
 _ZNK4Ping7payloadEv@Base 0.30.0
 _ZNK4Ping9availableEv@Base 0.30.0
 _ZNK5Event10paramValueERK11ParamTypeId@Base 0.30.0
 _ZNK5Event11eventTypeIdEv@Base 0.30.0
 _ZNK5Event18isStateChangeEventEv@Base 0.30.0
 _ZNK5Event5paramERK11ParamTypeId@Base 0.30.0
 _ZNK5Event6loggedEv@Base 0.30.0
 _ZNK5Event6paramsEv@Base 0.30.0
 _ZNK5Event7thingIdEv@Base 0.30.0
 _ZNK5EventeqERKS_@Base 0.30.0
 _ZNK5Param11paramTypeIdEv@Base 0.30.0
 _ZNK5Param5valueEv@Base 0.30.0
 _ZNK5Param7isValidEv@Base 0.30.0
 _ZNK5State11stateTypeIdEv@Base 0.30.0
 _ZNK5State5valueEv@Base 0.30.0
 _ZNK5State6filterEv@Base 0.30.0
 _ZNK5State7thingIdEv@Base 0.30.0
 _ZNK5State8maxValueEv@Base 0.30.0
 _ZNK5State8minValueEv@Base 0.30.0
 _ZNK5Thing10hasSettingERK11ParamTypeId@Base 0.30.0
 _ZNK5Thing10metaObjectEv@Base 0.30.0
 _ZNK5Thing10paramValueERK11ParamTypeId@Base 0.30.0
 _ZNK5Thing10paramValueERK7QString@Base 0.30.0
 _ZNK5Thing10setupErrorEv@Base 0.30.0
 _ZNK5Thing10stateValueERK11StateTypeId@Base 0.30.0
 _ZNK5Thing10stateValueERK7QString@Base 0.30.0
 _ZNK5Thing10thingClassEv@Base 0.30.0
 _ZNK5Thing11autoCreatedEv@Base 0.30.0
 _ZNK5Thing11setupStatusEv@Base 0.30.0
 _ZNK5Thing12thingClassIdEv@Base 0.30.0
 _ZNK5Thing13setupCompleteEv@Base 0.30.0
 _ZNK5Thing18loggedEventTypeIdsEv@Base 0.30.0
 _ZNK5Thing19setupDisplayMessageEv@Base 0.30.0
 _ZNK5Thing2idEv@Base 0.30.0
 _ZNK5Thing4nameEv@Base 0.30.0
 _ZNK5Thing5stateERK11StateTypeId@Base 0.30.0
 _ZNK5Thing5stateERK7QString@Base 0.30.0
 _ZNK5Thing6paramsEv@Base 0.30.0
 _ZNK5Thing6statesEv@Base 0.30.0
 _ZNK5Thing7settingERK11ParamTypeId@Base 0.30.0
 _ZNK5Thing7settingERK7QString@Base 0.30.0
 _ZNK5Thing8hasParamERK11ParamTypeId@Base 0.30.0
 _ZNK5Thing8hasStateERK11StateTypeId@Base 0.30.0
 _ZNK5Thing8hasStateERK7QString@Base 0.30.0
 _ZNK5Thing8parentIdEv@Base 0.30.0
 _ZNK5Thing8pluginIdEv@Base 0.30.0
 _ZNK5Thing8settingsEv@Base 0.30.0
 _ZNK6Action10paramValueERK11ParamTypeId@Base 0.30.0
 _ZNK6Action11triggeredByEv@Base 0.30.0
 _ZNK6Action12actionTypeIdEv@Base 0.30.0
 _ZNK6Action5paramERK11ParamTypeId@Base 0.30.0
 _ZNK6Action6paramsEv@Base 0.30.0
 _ZNK6Action7isValidEv@Base 0.30.0
 _ZNK6Action7thingIdEv@Base 0.30.0
 _ZNK6ApiKey4dataERK7QString@Base 0.30.0
 _ZNK6OAuth210metaObjectEv@Base 0.30.0
 _ZNK6OAuth212clientSecretEv@Base 0.30.0
 _ZNK6OAuth213authenticatedEv@Base 0.30.0
 _ZNK6OAuth23urlEv@Base 0.30.0
 _ZNK6OAuth25queryEv@Base 0.30.0
 _ZNK6OAuth25scopeEv@Base 0.30.0
 _ZNK6OAuth25tokenEv@Base 0.30.0
 _ZNK6OAuth28clientIdEv@Base 0.30.0
 _ZNK6OAuth28passwordEv@Base 0.30.0
 _ZNK6OAuth28usernameEv@Base 0.30.0
 _ZNK6States3getEi@Base 0.30.0
 _ZNK6Things12findByParamsERK9ParamList@Base 0.30.0
 _ZNK6Things3getEi@Base 0.30.0
 _ZNK6Vendor11displayNameEv@Base 0.30.0
 _ZNK6Vendor2idEv@Base 0.30.0
 _ZNK6Vendor4nameEv@Base 0.30.0
 _ZNK6VendoreqERKS_@Base 0.30.0
 _ZNK7CoapPdu10metaObjectEv@Base 0.30.0
 _ZNK7CoapPdu10statusCodeEv@Base 0.30.0
 _ZNK7CoapPdu11contentTypeEv@Base 0.30.0
 _ZNK7CoapPdu11messageTypeEv@Base 0.30.0
 _ZNK7CoapPdu4packEv@Base 0.30.0
 _ZNK7CoapPdu5blockEv@Base 0.30.0
 _ZNK7CoapPdu5tokenEv@Base 0.30.0
 _ZNK7CoapPdu7isValidEv@Base 0.30.0
 _ZNK7CoapPdu7optionsEv@Base 0.30.0
 _ZNK7CoapPdu7payloadEv@Base 0.30.0
 _ZNK7CoapPdu7versionEv@Base 0.30.0
 _ZNK7CoapPdu9hasOptionERKN10CoapOption6OptionE@Base 0.30.0
 _ZNK7CoapPdu9messageIdEv@Base 0.30.0
 _ZNK7Package11displayNameEv@Base 0.30.0
 _ZNK7Package15updateAvailableEv@Base 0.30.0
 _ZNK7Package16candidateVersionEv@Base 0.30.0
 _ZNK7Package16installedVersionEv@Base 0.30.0
 _ZNK7Package17rollbackAvailableEv@Base 0.30.0
 _ZNK7Package7summaryEv@Base 0.30.0
 _ZNK7Package9canRemoveEv@Base 0.30.0
 _ZNK7Package9changelogEv@Base 0.30.0
 _ZNK7Package9packageIdEv@Base 0.30.0
 _ZNK7PackageeqERKS_@Base 0.30.0
 _ZNK7PackageneERKS_@Base 0.30.0
 _ZNK7Vendors3getEi@Base 0.30.0
 _ZNK7Vendors8findByIdERK8VendorId@Base 0.30.0
 _ZNK8CoreLink10observableEv@Base 0.30.0
 _ZNK8CoreLink11contentTypeEv@Base 0.30.0
 _ZNK8CoreLink11maximumSizeEv@Base 0.30.0
 _ZNK8CoreLink12resourceTypeEv@Base 0.30.0
 _ZNK8CoreLink20interfaceDescriptionEv@Base 0.30.0
 _ZNK8CoreLink4pathEv@Base 0.30.0
 _ZNK8CoreLink5titleEv@Base 0.30.0
 _ZNK8Packages3getEi@Base 0.30.0
 _ZNK8Radio43310metaObjectEv@Base 0.30.0
 _ZNK9ArpSocket10metaObjectEv@Base 0.30.0
 _ZNK9ArpSocket6isOpenEv@Base 0.30.0
 _ZNK9CoapReply10isFinishedEv@Base 0.30.0
 _ZNK9CoapReply10metaObjectEv@Base 0.30.0
 _ZNK9CoapReply10statusCodeEv@Base 0.30.0
 _ZNK9CoapReply11contentTypeEv@Base 0.30.0
 _ZNK9CoapReply11errorStringEv@Base 0.30.0
 _ZNK9CoapReply11hostAddressEv@Base 0.30.0
 _ZNK9CoapReply11messageTypeEv@Base 0.30.0
 _ZNK9CoapReply11observationEv@Base 0.30.0
 _ZNK9CoapReply11requestDataEv@Base 0.30.0
 _ZNK9CoapReply12messageTokenEv@Base 0.30.0
 _ZNK9CoapReply13requestMethodEv@Base 0.30.0
 _ZNK9CoapReply14requestPayloadEv@Base 0.30.0
 _ZNK9CoapReply17observationEnableEv@Base 0.30.0
 _ZNK9CoapReply4portEv@Base 0.30.0
 _ZNK9CoapReply5errorEv@Base 0.30.0
 _ZNK9CoapReply7payloadEv@Base 0.30.0
 _ZNK9CoapReply7requestEv@Base 0.30.0
 _ZNK9CoapReply9isRunningEv@Base 0.30.0
 _ZNK9CoapReply9messageIdEv@Base 0.30.0
 _ZNK9EventType10paramTypesEv@Base 0.30.0
 _ZNK9EventType11displayNameEv@Base 0.30.0
 _ZNK9EventType14suggestLoggingEv@Base 0.30.0
 _ZNK9EventType2idEv@Base 0.30.0
 _ZNK9EventType4nameEv@Base 0.30.0
 _ZNK9EventType5indexEv@Base 0.30.0
 _ZNK9EventType7isValidEv@Base 0.30.0
 _ZNK9I2CDevice10metaObjectEv@Base 0.30.0
 _ZNK9I2CDevice7addressEv@Base 0.30.0
 _ZNK9I2CDevice8portNameEv@Base 0.30.0
 _ZNK9Interface10eventTypesEv@Base 0.30.0
 _ZNK9Interface10stateTypesEv@Base 0.30.0
 _ZNK9Interface11actionTypesEv@Base 0.30.0
 _ZNK9Interface4nameEv@Base 0.30.0
 _ZNK9Interface7isValidEv@Base 0.30.0
 _ZNK9JsonReply10metaObjectEv@Base 0.30.0
 _ZNK9JsonReply4dataEv@Base 0.30.0
 _ZNK9JsonReply4typeEv@Base 0.30.0
 _ZNK9JsonReply6methodEv@Base 0.30.0
 _ZNK9JsonReply7handlerEv@Base 0.30.0
 _ZNK9JsonReply8clientIdEv@Base 0.30.0
 _ZNK9JsonReply8timedOutEv@Base 0.30.0
 _ZNK9JsonReply9commandIdEv@Base 0.30.0
 _ZNK9ParamList10paramValueERK11ParamTypeId@Base 0.30.0
 _ZNK9ParamList8hasParamERK11ParamTypeId@Base 0.30.0
 _ZNK9ParamType11displayNameEv@Base 0.30.0
 _ZNK9ParamType12defaultValueEv@Base 0.30.0
 _ZNK9ParamType13allowedValuesEv@Base 0.30.0
 _ZNK9ParamType2idEv@Base 0.30.0
 _ZNK9ParamType4nameEv@Base 0.30.0
 _ZNK9ParamType4typeEv@Base 0.30.0
 _ZNK9ParamType4unitEv@Base 0.30.0
 _ZNK9ParamType5indexEv@Base 0.30.0
 _ZNK9ParamType6limitsEv@Base 0.30.0
 _ZNK9ParamType7isValidEv@Base 0.30.0
 _ZNK9ParamType8maxValueEv@Base 0.30.0
 _ZNK9ParamType8minValueEv@Base 0.30.0
 _ZNK9ParamType8readOnlyEv@Base 0.30.0
 _ZNK9ParamType9inputTypeEv@Base 0.30.0
 _ZNK9PingReply10metaObjectEv@Base 0.30.0
 _ZNK9PingReply14sequenceNumberEv@Base 0.30.0
 _ZNK9PingReply16networkInterfaceEv@Base 0.30.0
 _ZNK9PingReply17targetHostAddressEv@Base 0.30.0
 _ZNK9PingReply5errorEv@Base 0.30.0
 _ZNK9PingReply8durationEv@Base 0.30.0
 _ZNK9PingReply8hostNameEv@Base 0.30.0
 _ZNK9PingReply9requestIdEv@Base 0.30.0
 _ZNK9StateType11displayNameEv@Base 0.30.0
 _ZNK9StateType12defaultValueEv@Base 0.30.0
 _ZNK9StateType14possibleValuesEv@Base 0.30.0
 _ZNK9StateType14suggestLoggingEv@Base 0.30.0
 _ZNK9StateType2idEv@Base 0.30.0
 _ZNK9StateType4nameEv@Base 0.30.0
 _ZNK9StateType4typeEv@Base 0.30.0
 _ZNK9StateType4unitEv@Base 0.30.0
 _ZNK9StateType5indexEv@Base 0.30.0
 _ZNK9StateType6cachedEv@Base 0.30.0
 _ZNK9StateType6filterEv@Base 0.30.0
 _ZNK9StateType6ioTypeEv@Base 0.30.0
 _ZNK9StateType7isValidEv@Base 0.30.0
 _ZNK9StateType8maxValueEv@Base 0.30.0
 _ZNK9StateType8minValueEv@Base 0.30.0
 _ZNK9StateType8writableEv@Base 0.30.0
 _ZTI10I2CManager@Base 0.30.0
 _ZTI10UpnpDevice@Base 0.30.0
 _ZTI11JsonHandler@Base 0.30.0
 _ZTI11MqttChannel@Base 0.30.0
 _ZTI11PluginTimer@Base 0.30.0
 _ZTI12BrowseResult@Base 0.30.0
 _ZTI12MqttProvider@Base 0.30.0
 _ZTI12ThingManager@Base 0.30.0
 _ZTI13ApiKeyStorage@Base 0.30.0
 _ZTI13NymeaSettings@Base 0.30.0
 _ZTI13UpnpDiscovery@Base 0.30.0
 _ZTI14CoreLinkParser@Base 0.30.0
 _ZTI14ModbusRtuReply@Base 0.30.0
 _ZTI14ThingSetupInfo@Base 0.30.0
 _ZTI15ApiKeysProvider@Base 0.30.0
 _ZTI15HardwareManager@Base 0.30.0
 _ZTI15ModbusRtuMaster@Base 0.30.0
 _ZTI15ThingActionInfo@Base 0.30.0
 _ZTI16ExperiencePlugin@Base 0.30.0
 _ZTI16HardwareResource@Base 0.30.0
 _ZTI16NymeaDBusService@Base 0.30.0
 _ZTI16QFutureInterfaceI7QStringE@Base 0.30.0
 _ZTI16StateValueFilter@Base 0.30.0
 _ZTI16ThingPairingInfo@Base 0.30.0
 _ZTI17BrowserActionInfo@Base 0.30.0
 _ZTI17BrowserItemResult@Base 0.30.0
 _ZTI17IntegrationPlugin@Base 0.30.0
 _ZTI18MacAddressDatabase@Base 0.30.0
 _ZTI18PluginTimerManager@Base 0.30.0
 _ZTI18ThingDiscoveryInfo@Base 0.30.0
 _ZTI18UpnpDiscoveryReply@Base 0.30.0
 _ZTI20NetworkAccessManager@Base 0.30.0
 _ZTI21BrowserItemActionInfo@Base 0.30.0
 _ZTI22NetworkDeviceDiscovery@Base 0.30.0
 _ZTI22ZeroConfServiceBrowser@Base 0.30.0
 _ZTI22ZigbeeHardwareResource@Base 0.30.0
 _ZTI23BluetoothDiscoveryReply@Base 0.30.0
 _ZTI23MacAddressDatabaseReply@Base 0.30.0
 _ZTI24BluetoothLowEnergyDevice@Base 0.30.0
 _ZTI24PlatformSystemController@Base 0.30.0
 _ZTI24PlatformUpdateController@Base 0.30.0
 _ZTI24StateValueFilterAdaptive@Base 0.30.0
 _ZTI24ZeroConfServicePublisher@Base 0.30.0
 _ZTI25BluetoothLowEnergyManager@Base 0.30.0
 _ZTI25ModbusRtuHardwareResource@Base 0.30.0
 _ZTI26PlatformZeroConfController@Base 0.30.0
 _ZTI27NetworkDeviceDiscoveryReply@Base 0.30.0
 _ZTI3Pwm@Base 0.30.0
 _ZTI4Coap@Base 0.30.0
 _ZTI4Ping@Base 0.30.0
 _ZTI5Thing@Base 0.30.0
 _ZTI6OAuth2@Base 0.30.0
 _ZTI7CoapPdu@Base 0.30.0
 _ZTI8Radio433@Base 0.30.0
 _ZTI9ArpSocket@Base 0.30.0
 _ZTI9CoapReply@Base 0.30.0
 _ZTI9I2CDevice@Base 0.30.0
 _ZTI9JsonReply@Base 0.30.0
 _ZTI9PingReply@Base 0.30.0
 _ZTIN12QtConcurrent15RunFunctionTaskI7QStringEE@Base 0.30.0
 _ZTIN12QtConcurrent19RunFunctionTaskBaseI7QStringEE@Base 0.30.0
 _ZTS10I2CManager@Base 0.30.0
 _ZTS10UpnpDevice@Base 0.30.0
 _ZTS11JsonHandler@Base 0.30.0
 _ZTS11MqttChannel@Base 0.30.0
 _ZTS11PluginTimer@Base 0.30.0
 _ZTS12BrowseResult@Base 0.30.0
 _ZTS12MqttProvider@Base 0.30.0
 _ZTS12ThingManager@Base 0.30.0
 _ZTS13ApiKeyStorage@Base 0.30.0
 _ZTS13NymeaSettings@Base 0.30.0
 _ZTS13UpnpDiscovery@Base 0.30.0
 _ZTS13ZigbeeHandler@Base 0.30.0
 _ZTS14CoreLinkParser@Base 0.30.0
 _ZTS14ModbusRtuReply@Base 0.30.0
 _ZTS14QFutureWatcherI7QStringE@Base 0.30.0
 _ZTS14ThingSetupInfo@Base 0.30.0
 _ZTS15ApiKeysProvider@Base 0.30.0
 _ZTS15HardwareManager@Base 0.30.0
 _ZTS15ModbusRtuMaster@Base 0.30.0
 _ZTS15ThingActionInfo@Base 0.30.0
 _ZTS16ExperiencePlugin@Base 0.30.0
 _ZTS16HardwareResource@Base 0.30.0
 _ZTS16NymeaDBusService@Base 0.30.0
 _ZTS16QFutureInterfaceI7QStringE@Base 0.30.0
 _ZTS16StateValueFilter@Base 0.30.0
 _ZTS16ThingPairingInfo@Base 0.30.0
 _ZTS17BrowserActionInfo@Base 0.30.0
 _ZTS17BrowserItemResult@Base 0.30.0
 _ZTS17IntegrationPlugin@Base 0.30.0
 _ZTS18MacAddressDatabase@Base 0.30.0
 _ZTS18PluginTimerManager@Base 0.30.0
 _ZTS18ThingDiscoveryInfo@Base 0.30.0
 _ZTS18UpnpDiscoveryReply@Base 0.30.0
 _ZTS20NetworkAccessManager@Base 0.30.0
 _ZTS21BrowserItemActionInfo@Base 0.30.0
 _ZTS22NetworkDeviceDiscovery@Base 0.30.0
 _ZTS22ZeroConfServiceBrowser@Base 0.30.0
 _ZTS22ZigbeeHardwareResource@Base 0.30.0
 _ZTS23BluetoothDiscoveryReply@Base 0.30.0
 _ZTS23MacAddressDatabaseReply@Base 0.30.0
 _ZTS24BluetoothLowEnergyDevice@Base 0.30.0
 _ZTS24PlatformSystemController@Base 0.30.0
 _ZTS24PlatformUpdateController@Base 0.30.0
 _ZTS24StateValueFilterAdaptive@Base 0.30.0
 _ZTS24ZeroConfServicePublisher@Base 0.30.0
 _ZTS25BluetoothLowEnergyManager@Base 0.30.0
 _ZTS25ModbusRtuHardwareResource@Base 0.30.0
 _ZTS26PlatformZeroConfController@Base 0.30.0
 _ZTS27NetworkDeviceDiscoveryReply@Base 0.30.0
 _ZTS3Pwm@Base 0.30.0
 _ZTS4Coap@Base 0.30.0
 _ZTS4Ping@Base 0.30.0
 _ZTS5Thing@Base 0.30.0
 _ZTS6OAuth2@Base 0.30.0
 _ZTS7CoapPdu@Base 0.30.0
 _ZTS8Radio433@Base 0.30.0
 _ZTS9ArpSocket@Base 0.30.0
 _ZTS9CoapReply@Base 0.30.0
 _ZTS9I2CDevice@Base 0.30.0
 _ZTS9JsonReply@Base 0.30.0
 _ZTS9PingReply@Base 0.30.0
 _ZTSN12QtConcurrent15RunFunctionTaskI7QStringEE@Base 0.30.0
 _ZTSN12QtConcurrent19RunFunctionTaskBaseI7QStringEE@Base 0.30.0
 _ZTSN12QtConcurrent32StoredMemberFunctionPointerCall1I7QString18MacAddressDatabaseRKS1_S1_EE@Base 0.30.0
 _ZTV10I2CManager@Base 0.30.0
 _ZTV10UpnpDevice@Base 0.30.0
 _ZTV11JsonHandler@Base 0.30.0
 _ZTV11MqttChannel@Base 0.30.0
 _ZTV11PluginTimer@Base 0.30.0
 _ZTV12BrowseResult@Base 0.30.0
 _ZTV12MqttProvider@Base 0.30.0
 _ZTV12ThingManager@Base 0.30.0
 _ZTV13ApiKeyStorage@Base 0.30.0
 _ZTV13NymeaSettings@Base 0.30.0
 _ZTV13UpnpDiscovery@Base 0.30.0
 _ZTV14CoreLinkParser@Base 0.30.0
 _ZTV14ModbusRtuReply@Base 0.30.0
 _ZTV14ThingSetupInfo@Base 0.30.0
 _ZTV15ApiKeysProvider@Base 0.30.0
 _ZTV15HardwareManager@Base 0.30.0
 _ZTV15ModbusRtuMaster@Base 0.30.0
 _ZTV15ThingActionInfo@Base 0.30.0
 _ZTV16ExperiencePlugin@Base 0.30.0
 _ZTV16HardwareResource@Base 0.30.0
 _ZTV16NymeaDBusService@Base 0.30.0
 _ZTV16StateValueFilter@Base 0.30.0
 _ZTV16ThingPairingInfo@Base 0.30.0
 _ZTV17BrowserActionInfo@Base 0.30.0
 _ZTV17BrowserItemResult@Base 0.30.0
 _ZTV17IntegrationPlugin@Base 0.30.0
 _ZTV18MacAddressDatabase@Base 0.30.0
 _ZTV18PluginTimerManager@Base 0.30.0
 _ZTV18ThingDiscoveryInfo@Base 0.30.0
 _ZTV18UpnpDiscoveryReply@Base 0.30.0
 _ZTV20NetworkAccessManager@Base 0.30.0
 _ZTV21BrowserItemActionInfo@Base 0.30.0
 _ZTV22NetworkDeviceDiscovery@Base 0.30.0
 _ZTV22ZeroConfServiceBrowser@Base 0.30.0
 _ZTV22ZigbeeHardwareResource@Base 0.30.0
 _ZTV23BluetoothDiscoveryReply@Base 0.30.0
 _ZTV23MacAddressDatabaseReply@Base 0.30.0
 _ZTV24BluetoothLowEnergyDevice@Base 0.30.0
 _ZTV24PlatformSystemController@Base 0.30.0
 _ZTV24PlatformUpdateController@Base 0.30.0
 _ZTV24StateValueFilterAdaptive@Base 0.30.0
 _ZTV24ZeroConfServicePublisher@Base 0.30.0
 _ZTV25BluetoothLowEnergyManager@Base 0.30.0
 _ZTV25ModbusRtuHardwareResource@Base 0.30.0
 _ZTV26PlatformZeroConfController@Base 0.30.0
 _ZTV27NetworkDeviceDiscoveryReply@Base 0.30.0
 _ZTV3Pwm@Base 0.30.0
 _ZTV4Coap@Base 0.30.0
 _ZTV4Ping@Base 0.30.0
 _ZTV5Thing@Base 0.30.0
 _ZTV6OAuth2@Base 0.30.0
 _ZTV7CoapPdu@Base 0.30.0
 _ZTV8Radio433@Base 0.30.0
 _ZTV9ArpSocket@Base 0.30.0
 _ZTV9CoapReply@Base 0.30.0
 _ZTV9I2CDevice@Base 0.30.0
 _ZTV9JsonReply@Base 0.30.0
 _ZTV9PingReply@Base 0.30.0
 _ZZN11QMetaTypeIdI10ActionTypeE14qt_metatype_idEvE11metatype_id@Base 0.30.0
 _ZZN11QMetaTypeIdI10EventTypesE14qt_metatype_idEvE11metatype_id@Base 0.30.0
 _ZZN11QMetaTypeIdI10ParamTypesE14qt_metatype_idEvE11metatype_id@Base 0.30.0
 _ZZN11QMetaTypeIdI10RepositoryE14qt_metatype_idEvE11metatype_id@Base 0.30.0
 _ZZN11QMetaTypeIdI10StateTypesE14qt_metatype_idEvE11metatype_id@Base 0.30.0
 _ZZN11QMetaTypeIdI11ActionTypesE14qt_metatype_idEvE11metatype_id@Base 0.30.0
 _ZZN11QMetaTypeIdI11BrowserItemE14qt_metatype_idEvE11metatype_id@Base 0.30.0
 _ZZN11QMetaTypeIdI11EventTypeIdE14qt_metatype_idEvE11metatype_id@Base 0.30.0
 _ZZN11QMetaTypeIdI11ParamTypeIdE14qt_metatype_idEvE11metatype_id@Base 0.30.0
 _ZZN11QMetaTypeIdI11StateTypeIdE14qt_metatype_idEvE11metatype_id@Base 0.30.0
 _ZZN11QMetaTypeIdI12ActionTypeIdE14qt_metatype_idEvE11metatype_id@Base 0.30.0
 _ZZN11QMetaTypeIdI12IOConnectionE14qt_metatype_idEvE11metatype_id@Base 0.30.0
 _ZZN11QMetaTypeIdI12ThingClassIdE14qt_metatype_idEvE11metatype_id@Base 0.30.0
 _ZZN11QMetaTypeIdI13CalendarItemsE14qt_metatype_idEvE11metatype_id@Base 0.30.0
 _ZZN11QMetaTypeIdI13TimeEventItemE14qt_metatype_idEvE11metatype_id@Base 0.30.0
 _ZZN11QMetaTypeIdI14IOConnectionIdE14qt_metatype_idEvE11metatype_id@Base 0.30.0
 _ZZN11QMetaTypeIdI14TimeEventItemsE14qt_metatype_idEvE11metatype_id@Base 0.30.0
 _ZZN11QMetaTypeIdI15EventDescriptorE14qt_metatype_idEvE11metatype_id@Base 0.30.0
 _ZZN11QMetaTypeIdI15ParamDescriptorE14qt_metatype_idEvE11metatype_id@Base 0.30.0
 _ZZN11QMetaTypeIdI15ThingDescriptorE14qt_metatype_idEvE11metatype_id@Base 0.30.0
 _ZZN11QMetaTypeIdI16ParamDescriptorsE14qt_metatype_idEvE11metatype_id@Base 0.30.0
 _ZZN11QMetaTypeIdI16ThingDescriptorsE14qt_metatype_idEvE11metatype_id@Base 0.30.0
 _ZZN11QMetaTypeIdI17QNetworkInterfaceE14qt_metatype_idEvE11metatype_id@Base 0.30.0
 _ZZN11QMetaTypeIdI17ThingDescriptorIdE14qt_metatype_idEvE11metatype_id@Base 0.30.0
 _ZZN11QMetaTypeIdI20ZeroConfServiceEntryE14qt_metatype_idEvE11metatype_id@Base 0.30.0
 _ZZN11QMetaTypeIdI5EventE14qt_metatype_idEvE11metatype_id@Base 0.30.0
 _ZZN11QMetaTypeIdI5ParamE14qt_metatype_idEvE11metatype_id@Base 0.30.0
 _ZZN11QMetaTypeIdI5QListI11EventTypeIdEE14qt_metatype_idEvE11metatype_id@Base 0.30.0
 _ZZN11QMetaTypeIdI5QListI12ActionTypeIdEE14qt_metatype_idEvE11metatype_id@Base 0.30.0
 _ZZN11QMetaTypeIdI5QListI5QUuidEE14qt_metatype_idEvE11metatype_id@Base 0.30.0
 _ZZN11QMetaTypeIdI5QListI9QDateTimeEE14qt_metatype_idEvE11metatype_id@Base 0.30.0
 _ZZN11QMetaTypeIdI5QListIiEE14qt_metatype_idEvE11metatype_id@Base 0.30.0
 _ZZN11QMetaTypeIdI5StateE14qt_metatype_idEvE11metatype_id@Base 0.30.0
 _ZZN11QMetaTypeIdI6StatesE14qt_metatype_idEvE11metatype_id@Base 0.30.0
 _ZZN11QMetaTypeIdI6VendorE14qt_metatype_idEvE11metatype_id@Base 0.30.0
 _ZZN11QMetaTypeIdI7PackageE14qt_metatype_idEvE11metatype_id@Base 0.30.0
 _ZZN11QMetaTypeIdI7ThingIdE14qt_metatype_idEvE11metatype_id@Base 0.30.0
 _ZZN11QMetaTypeIdI8PluginIdE14qt_metatype_idEvE11metatype_id@Base 0.30.0
 _ZZN11QMetaTypeIdI9EventTypeE14qt_metatype_idEvE11metatype_id@Base 0.30.0
 _ZZN11QMetaTypeIdI9ParamListE14qt_metatype_idEvE11metatype_id@Base 0.30.0
 _ZZN11QMetaTypeIdI9QHostInfoE14qt_metatype_idEvE11metatype_id@Base 0.30.0
 _ZZN11QMetaTypeIdI9StateTypeE14qt_metatype_idEvE11metatype_id@Base 0.30.0
 _ZZN11QMetaTypeIdIN17QtMetaTypePrivate23QSequentialIterableImplEE14qt_metatype_idEvE11metatype_id@Base 0.30.0
 _ZZN11QMetaTypeIdIN20QLowEnergyController15ControllerStateEE14qt_metatype_idEvE11metatype_id@Base 0.30.0
 _ZZN11QMetaTypeIdIN20QLowEnergyController5ErrorEE14qt_metatype_idEvE11metatype_id@Base 0.30.0
 _ZZN11QMetaTypeIdIN5Thing10ThingErrorEE14qt_metatype_idEvE11metatype_id@Base 0.30.0
 _ZZN11QMetaTypeIdIN5Types13ValueOperatorEE14qt_metatype_idEvE11metatype_id@Base 0.30.0
 _ZZN11QMetaTypeIdIN5Types4UnitEE14qt_metatype_idEvE11metatype_id@Base 0.30.0
 _ZZN11QMetaTypeIdIN5Types9InputTypeEE14qt_metatype_idEvE11metatype_id@Base 0.30.0
 _ZZN11QMetaTypeIdIN8QVariant4TypeEE14qt_metatype_idEvE11metatype_id@Base 0.30.0
 _ZZN11QMetaTypeIdIP17IntegrationPluginE14qt_metatype_idEvE11metatype_id@Base 0.30.0
 _ZZN18QMetaTypeIdQObjectI10ThingClassLi512EE14qt_metatype_idEvE11metatype_id@Base 0.30.0
 _ZZN18QMetaTypeIdQObjectI12CalendarItemLi512EE14qt_metatype_idEvE11metatype_id@Base 0.30.0
 _ZZN18QMetaTypeIdQObjectI12ThingClassesLi512EE14qt_metatype_idEvE11metatype_id@Base 0.30.0
 _ZZN18QMetaTypeIdQObjectI9ParamTypeLi512EE14qt_metatype_idEvE11metatype_id@Base 0.30.0
 _ZZN18QMetaTypeIdQObjectIP11MqttChannelLi8EE14qt_metatype_idEvE11metatype_id@Base 0.30.0
 _ZZN18QMetaTypeIdQObjectIP11PluginTimerLi8EE14qt_metatype_idEvE11metatype_id@Base 0.30.0
 _ZZN18QMetaTypeIdQObjectIP13QNetworkReplyLi8EE14qt_metatype_idEvE11metatype_id@Base 0.30.0
 _ZZN18QMetaTypeIdQObjectIP5ThingLi8EE14qt_metatype_idEvE11metatype_id@Base 0.30.0
 _ZZN18QMetaTypeIdQObjectIP9CoapReplyLi8EE14qt_metatype_idEvE11metatype_id@Base 0.30.0
 _ZZN9QtPrivate19ValueTypeIsMetaTypeI5QListI11EventTypeIdELb1EE17registerConverterEiE1f@Base 0.30.0
 _ZZN9QtPrivate19ValueTypeIsMetaTypeI5QListI12ActionTypeIdELb1EE17registerConverterEiE1f@Base 0.30.0
 _ZZN9QtPrivate19ValueTypeIsMetaTypeI5QListI5QUuidELb1EE17registerConverterEiE1f@Base 0.30.0
 _ZZN9QtPrivate19ValueTypeIsMetaTypeI5QListI9QDateTimeELb1EE17registerConverterEiE1f@Base 0.30.0
 _ZZN9QtPrivate19ValueTypeIsMetaTypeI5QListIiELb1EE17registerConverterEiE1f@Base 0.30.0
 _Zls6QDebugP3Pwm@Base 0.30.0
 _Zls6QDebugP5Thing@Base 0.30.0
 _Zls6QDebugP9CoapReply@Base 0.30.0
 _Zls6QDebugPK9I2CDevice@Base 0.30.0
 _Zls6QDebugRK10ActionType@Base 0.30.0
 _Zls6QDebugRK10CoapOption@Base 0.30.0
 _Zls6QDebugRK12CalendarItem@Base 0.30.0
 _Zls6QDebugRK13TimeEventItem@Base 0.30.0
 _Zls6QDebugRK14TimeDescriptor@Base 0.30.0
 _Zls6QDebugRK15EventDescriptor@Base 0.30.0
 _Zls6QDebugRK15ParamDescriptor@Base 0.30.0
 _Zls6QDebugRK15RepeatingOption@Base 0.30.0
 _Zls6QDebugRK15StateDescriptor@Base 0.30.0
 _Zls6QDebugRK17NetworkDeviceInfo@Base 0.30.0
 _Zls6QDebugRK20UpnpDeviceDescriptor@Base 0.30.0
 _Zls6QDebugRK20ZeroConfServiceEntry@Base 0.30.0
 _Zls6QDebugRK5Event@Base 0.30.0
 _Zls6QDebugRK5Param@Base 0.30.0
 _Zls6QDebugRK5QListI15EventDescriptorE@Base 0.30.0
 _Zls6QDebugRK5QListI5EventE@Base 0.30.0
 _Zls6QDebugRK5QListI5StateE@Base 0.30.0
 _Zls6QDebugRK5QListI9ParamTypeE@Base 0.30.0
 _Zls6QDebugRK5State@Base 0.30.0
 _Zls6QDebugRK7CoapPdu@Base 0.30.0
 _Zls6QDebugRK8CoreLink@Base 0.30.0
 _Zls6QDebugRK9ParamList@Base 0.30.0
 _Zls6QDebugRK9ParamType@Base 0.30.0
 _ZlsR6QDebugRK10ThingClass@Base 0.30.0
